
obj/net/ns：     文件格式 elf32-i386


Disassembly of section .text:

00800020 <_start>:
// starts us running when we are initially loaded into a new environment.
.text
.globl _start
_start:
	// See if we were started with arguments on the stack
	cmpl $USTACKTOP, %esp
  800020:	81 fc 00 e0 bf ee    	cmp    $0xeebfe000,%esp
	jne args_exist
  800026:	75 04                	jne    80002c <args_exist>

	// If not, push dummy argc/argv arguments.
	// This happens when we are loaded by the kernel,
	// because the kernel does not know about passing arguments.
	pushl $0
  800028:	6a 00                	push   $0x0
	pushl $0
  80002a:	6a 00                	push   $0x0

0080002c <args_exist>:

args_exist:
	call libmain
  80002c:	e8 df e4 00 00       	call   80e510 <libmain>
1:	jmp 1b
  800031:	eb fe                	jmp    800031 <args_exist+0x5>

00800033 <tcpip_init_done>:
		panic("cannot create timer thread: %s", e2s(r));
}

static void
tcpip_init_done(void *arg)
{
  800033:	55                   	push   %ebp
  800034:	89 e5                	mov    %esp,%ebp
  800036:	83 ec 14             	sub    $0x14,%esp
  800039:	8b 45 08             	mov    0x8(%ebp),%eax
	uint32_t *done = arg;
	*done = 1;
  80003c:	c7 00 01 00 00 00    	movl   $0x1,(%eax)
	thread_wakeup(done);
  800042:	50                   	push   %eax
  800043:	e8 25 a5 00 00       	call   80a56d <thread_wakeup>
}
  800048:	83 c4 10             	add    $0x10,%esp
  80004b:	c9                   	leave  
  80004c:	c3                   	ret    

0080004d <start_timer>:
{
  80004d:	55                   	push   %ebp
  80004e:	89 e5                	mov    %esp,%ebp
  800050:	53                   	push   %ebx
  800051:	83 ec 04             	sub    $0x4,%esp
	t->msec = msec;
  800054:	8b 5d 08             	mov    0x8(%ebp),%ebx
  800057:	89 18                	mov    %ebx,(%eax)
	t->func = func;
  800059:	89 50 04             	mov    %edx,0x4(%eax)
	t->name = name;
  80005c:	89 48 08             	mov    %ecx,0x8(%eax)
	int r = thread_create(0, name, &net_timer, (uint32_t)t);
  80005f:	50                   	push   %eax
  800060:	68 94 00 80 00       	push   $0x800094
  800065:	51                   	push   %ecx
  800066:	6a 00                	push   $0x0
  800068:	e8 6a a5 00 00       	call   80a5d7 <thread_create>
	if (r < 0)
  80006d:	83 c4 10             	add    $0x10,%esp
  800070:	85 c0                	test   %eax,%eax
  800072:	78 05                	js     800079 <start_timer+0x2c>
}
  800074:	8b 5d fc             	mov    -0x4(%ebp),%ebx
  800077:	c9                   	leave  
  800078:	c3                   	ret    
		panic("cannot create timer thread: %s", e2s(r));
  800079:	83 ec 0c             	sub    $0xc,%esp
  80007c:	50                   	push   %eax
  80007d:	e8 87 a8 00 00       	call   80a909 <e2s>
  800082:	50                   	push   %eax
  800083:	68 20 0e 81 00       	push   $0x810e20
  800088:	6a 7a                	push   $0x7a
  80008a:	68 55 0f 81 00       	push   $0x810f55
  80008f:	e8 dc e4 00 00       	call   80e570 <_panic>

00800094 <net_timer>:
{
  800094:	55                   	push   %ebp
  800095:	89 e5                	mov    %esp,%ebp
  800097:	56                   	push   %esi
  800098:	53                   	push   %ebx
	struct timer_thread *t = (struct timer_thread *) arg;
  800099:	8b 75 08             	mov    0x8(%ebp),%esi
		uint32_t cur = sys_time_msec();
  80009c:	e8 69 f1 00 00       	call   80f20a <sys_time_msec>
  8000a1:	89 c3                	mov    %eax,%ebx
		lwip_core_lock();
  8000a3:	e8 9c a4 00 00       	call   80a544 <lwip_core_lock>
		t->func();
  8000a8:	ff 56 04             	call   *0x4(%esi)
		lwip_core_unlock();
  8000ab:	e8 95 a4 00 00       	call   80a545 <lwip_core_unlock>
		thread_wait(0, 0, cur + t->msec);
  8000b0:	83 ec 04             	sub    $0x4,%esp
  8000b3:	03 1e                	add    (%esi),%ebx
  8000b5:	53                   	push   %ebx
  8000b6:	6a 00                	push   $0x0
  8000b8:	6a 00                	push   $0x0
  8000ba:	e8 c4 a6 00 00       	call   80a783 <thread_wait>
  8000bf:	83 c4 10             	add    $0x10,%esp
  8000c2:	eb d8                	jmp    80009c <net_timer+0x8>

008000c4 <serve_thread>:
	uint32_t whom;
	union Nsipc *req;
};

static void
serve_thread(uint32_t a) {
  8000c4:	55                   	push   %ebp
  8000c5:	89 e5                	mov    %esp,%ebp
  8000c7:	57                   	push   %edi
  8000c8:	56                   	push   %esi
  8000c9:	53                   	push   %ebx
  8000ca:	83 ec 7c             	sub    $0x7c,%esp
  8000cd:	8b 5d 08             	mov    0x8(%ebp),%ebx
	struct st_args *args = (struct st_args *)a;
	union Nsipc *req = args->req;
  8000d0:	8b 73 08             	mov    0x8(%ebx),%esi
	int r;

	switch (args->reqno) {
  8000d3:	83 3b 0a             	cmpl   $0xa,(%ebx)
  8000d6:	0f 87 4f 01 00 00    	ja     80022b <serve_thread+0x167>
  8000dc:	8b 03                	mov    (%ebx),%eax
  8000de:	ff 24 85 00 10 81 00 	jmp    *0x811000(,%eax,4)
	case NSREQ_ACCEPT:
	{
		struct Nsret_accept ret;
		ret.ret_addrlen = req->accept.req_addrlen;
  8000e5:	8b 46 04             	mov    0x4(%esi),%eax
  8000e8:	89 45 94             	mov    %eax,-0x6c(%ebp)
		r = lwip_accept(req->accept.req_s, &ret.ret_addr,
  8000eb:	83 ec 04             	sub    $0x4,%esp
  8000ee:	8d 45 94             	lea    -0x6c(%ebp),%eax
  8000f1:	50                   	push   %eax
  8000f2:	8d 45 84             	lea    -0x7c(%ebp),%eax
  8000f5:	50                   	push   %eax
  8000f6:	ff 36                	pushl  (%esi)
  8000f8:	e8 0e 0d 00 00       	call   800e0b <lwip_accept>
  8000fd:	89 c7                	mov    %eax,%edi
				&ret.ret_addrlen);
		memmove(req, &ret, sizeof ret);
  8000ff:	83 c4 0c             	add    $0xc,%esp
  800102:	6a 14                	push   $0x14
  800104:	8d 45 84             	lea    -0x7c(%ebp),%eax
  800107:	50                   	push   %eax
  800108:	56                   	push   %esi
  800109:	e8 a7 ec 00 00       	call   80edb5 <memmove>
  80010e:	83 c4 10             	add    $0x10,%esp
		cprintf("Invalid request code %d from %08x\n", args->whom, args->req);
		r = -E_INVAL;
		break;
	}

	if (r == -1) {
  800111:	83 ff ff             	cmp    $0xffffffff,%edi
  800114:	0f 84 2f 01 00 00    	je     800249 <serve_thread+0x185>
		char buf[100];
		snprintf(buf, sizeof buf, "ns req type %d", args->reqno);
		perror(buf);
	}

	if (args->reqno != NSREQ_INPUT)
  80011a:	83 3b 0a             	cmpl   $0xa,(%ebx)
  80011d:	0f 85 48 01 00 00    	jne    80026b <serve_thread+0x1a7>
		ipc_send(args->whom, r, 0, 0);

	put_buffer(args->req);
  800123:	8b 53 08             	mov    0x8(%ebx),%edx
	int i = ((uint32_t)va - REQVA) / PGSIZE;
  800126:	8d 82 00 50 01 f0    	lea    -0xffeb000(%edx),%eax
  80012c:	c1 e8 0c             	shr    $0xc,%eax
	buse[i] = 0;
  80012f:	c6 80 00 50 81 00 00 	movb   $0x0,0x815000(%eax)
	sys_page_unmap(0, (void*) args->req);
  800136:	83 ec 08             	sub    $0x8,%esp
  800139:	52                   	push   %edx
  80013a:	6a 00                	push   $0x0
  80013c:	e8 5d ef 00 00       	call   80f09e <sys_page_unmap>
	free(args);
  800141:	89 1c 24             	mov    %ebx,(%esp)
  800144:	e8 8b 05 01 00       	call   8106d4 <free>
}
  800149:	83 c4 10             	add    $0x10,%esp
  80014c:	8d 65 f4             	lea    -0xc(%ebp),%esp
  80014f:	5b                   	pop    %ebx
  800150:	5e                   	pop    %esi
  800151:	5f                   	pop    %edi
  800152:	5d                   	pop    %ebp
  800153:	c3                   	ret    
		r = lwip_bind(req->bind.req_s, &req->bind.req_name,
  800154:	83 ec 04             	sub    $0x4,%esp
  800157:	ff 76 14             	pushl  0x14(%esi)
  80015a:	8d 46 04             	lea    0x4(%esi),%eax
  80015d:	50                   	push   %eax
  80015e:	ff 36                	pushl  (%esi)
  800160:	e8 58 0e 00 00       	call   800fbd <lwip_bind>
  800165:	89 c7                	mov    %eax,%edi
		break;
  800167:	83 c4 10             	add    $0x10,%esp
  80016a:	eb a5                	jmp    800111 <serve_thread+0x4d>
		r = lwip_shutdown(req->shutdown.req_s, req->shutdown.req_how);
  80016c:	83 ec 08             	sub    $0x8,%esp
  80016f:	ff 76 04             	pushl  0x4(%esi)
  800172:	ff 36                	pushl  (%esi)
  800174:	e8 95 19 00 00       	call   801b0e <lwip_shutdown>
  800179:	89 c7                	mov    %eax,%edi
		break;
  80017b:	83 c4 10             	add    $0x10,%esp
  80017e:	eb 91                	jmp    800111 <serve_thread+0x4d>
		r = lwip_close(req->close.req_s);
  800180:	83 ec 0c             	sub    $0xc,%esp
  800183:	ff 36                	pushl  (%esi)
  800185:	e8 e9 0e 00 00       	call   801073 <lwip_close>
  80018a:	89 c7                	mov    %eax,%edi
		break;
  80018c:	83 c4 10             	add    $0x10,%esp
  80018f:	eb 80                	jmp    800111 <serve_thread+0x4d>
		r = lwip_connect(req->connect.req_s, &req->connect.req_name,
  800191:	83 ec 04             	sub    $0x4,%esp
  800194:	ff 76 14             	pushl  0x14(%esi)
  800197:	8d 46 04             	lea    0x4(%esi),%eax
  80019a:	50                   	push   %eax
  80019b:	ff 36                	pushl  (%esi)
  80019d:	e8 5a 0f 00 00       	call   8010fc <lwip_connect>
  8001a2:	89 c7                	mov    %eax,%edi
		break;
  8001a4:	83 c4 10             	add    $0x10,%esp
  8001a7:	e9 65 ff ff ff       	jmp    800111 <serve_thread+0x4d>
		r = lwip_listen(req->listen.req_s, req->listen.req_backlog);
  8001ac:	83 ec 08             	sub    $0x8,%esp
  8001af:	ff 76 04             	pushl  0x4(%esi)
  8001b2:	ff 36                	pushl  (%esi)
  8001b4:	e8 f9 0f 00 00       	call   8011b2 <lwip_listen>
  8001b9:	89 c7                	mov    %eax,%edi
		break;
  8001bb:	83 c4 10             	add    $0x10,%esp
  8001be:	e9 4e ff ff ff       	jmp    800111 <serve_thread+0x4d>
		r = lwip_recv(req->recv.req_s, req->recvRet.ret_buf,
  8001c3:	ff 76 08             	pushl  0x8(%esi)
  8001c6:	ff 76 04             	pushl  0x4(%esi)
  8001c9:	56                   	push   %esi
  8001ca:	ff 36                	pushl  (%esi)
  8001cc:	e8 c6 12 00 00       	call   801497 <lwip_recv>
  8001d1:	89 c7                	mov    %eax,%edi
		break;
  8001d3:	83 c4 10             	add    $0x10,%esp
  8001d6:	e9 36 ff ff ff       	jmp    800111 <serve_thread+0x4d>
		r = lwip_send(req->send.req_s, &req->send.req_buf,
  8001db:	ff 76 08             	pushl  0x8(%esi)
  8001de:	ff 76 04             	pushl  0x4(%esi)
  8001e1:	8d 46 0c             	lea    0xc(%esi),%eax
  8001e4:	50                   	push   %eax
  8001e5:	ff 36                	pushl  (%esi)
  8001e7:	e8 3d 14 00 00       	call   801629 <lwip_send>
  8001ec:	89 c7                	mov    %eax,%edi
		break;
  8001ee:	83 c4 10             	add    $0x10,%esp
  8001f1:	e9 1b ff ff ff       	jmp    800111 <serve_thread+0x4d>
		r = lwip_socket(req->socket.req_domain, req->socket.req_type,
  8001f6:	83 ec 04             	sub    $0x4,%esp
  8001f9:	ff 76 08             	pushl  0x8(%esi)
  8001fc:	ff 76 04             	pushl  0x4(%esi)
  8001ff:	ff 36                	pushl  (%esi)
  800201:	e8 b4 14 00 00       	call   8016ba <lwip_socket>
  800206:	89 c7                	mov    %eax,%edi
		break;
  800208:	83 c4 10             	add    $0x10,%esp
  80020b:	e9 01 ff ff ff       	jmp    800111 <serve_thread+0x4d>
		jif_input(&nif, (void *)&req->pkt);
  800210:	83 ec 08             	sub    $0x8,%esp
  800213:	56                   	push   %esi
  800214:	68 00 b2 b3 00       	push   $0xb3b200
  800219:	e8 da a7 00 00       	call   80a9f8 <jif_input>
  80021e:	83 c4 10             	add    $0x10,%esp
		r = 0;
  800221:	bf 00 00 00 00       	mov    $0x0,%edi
  800226:	e9 ef fe ff ff       	jmp    80011a <serve_thread+0x56>
		cprintf("Invalid request code %d from %08x\n", args->whom, args->req);
  80022b:	83 ec 04             	sub    $0x4,%esp
  80022e:	56                   	push   %esi
  80022f:	ff 73 04             	pushl  0x4(%ebx)
  800232:	68 40 0e 81 00       	push   $0x810e40
  800237:	e8 0f e4 00 00       	call   80e64b <cprintf>
  80023c:	83 c4 10             	add    $0x10,%esp
		r = -E_INVAL;
  80023f:	bf fd ff ff ff       	mov    $0xfffffffd,%edi
  800244:	e9 d1 fe ff ff       	jmp    80011a <serve_thread+0x56>
		snprintf(buf, sizeof buf, "ns req type %d", args->reqno);
  800249:	ff 33                	pushl  (%ebx)
  80024b:	68 60 0f 81 00       	push   $0x810f60
  800250:	6a 64                	push   $0x64
  800252:	8d 75 84             	lea    -0x7c(%ebp),%esi
  800255:	56                   	push   %esi
  800256:	e8 79 e9 00 00       	call   80ebd4 <snprintf>
		perror(buf);
  80025b:	89 34 24             	mov    %esi,(%esp)
  80025e:	e8 82 a6 00 00       	call   80a8e5 <perror>
  800263:	83 c4 10             	add    $0x10,%esp
  800266:	e9 af fe ff ff       	jmp    80011a <serve_thread+0x56>
		ipc_send(args->whom, r, 0, 0);
  80026b:	6a 00                	push   $0x0
  80026d:	6a 00                	push   $0x0
  80026f:	57                   	push   %edi
  800270:	ff 73 04             	pushl  0x4(%ebx)
  800273:	e8 c9 f3 00 00       	call   80f641 <ipc_send>
  800278:	83 c4 10             	add    $0x10,%esp
  80027b:	e9 a3 fe ff ff       	jmp    800123 <serve_thread+0x5f>

00800280 <serve_init>:
{
  800280:	55                   	push   %ebp
  800281:	89 e5                	mov    %esp,%ebp
  800283:	56                   	push   %esi
  800284:	53                   	push   %ebx
  800285:	83 ec 10             	sub    $0x10,%esp
  800288:	8b 75 08             	mov    0x8(%ebp),%esi
	lwip_core_lock();
  80028b:	e8 b4 a2 00 00       	call   80a544 <lwip_core_lock>
	uint32_t done = 0;
  800290:	c7 45 f4 00 00 00 00 	movl   $0x0,-0xc(%ebp)
	tcpip_init(&tcpip_init_done, &done);
  800297:	83 ec 08             	sub    $0x8,%esp
  80029a:	8d 5d f4             	lea    -0xc(%ebp),%ebx
  80029d:	53                   	push   %ebx
  80029e:	68 33 00 80 00       	push   $0x800033
  8002a3:	e8 f9 20 00 00       	call   8023a1 <tcpip_init>
	lwip_core_unlock();
  8002a8:	e8 98 a2 00 00       	call   80a545 <lwip_core_unlock>
	thread_wait(&done, 0, (uint32_t)~0);
  8002ad:	83 c4 0c             	add    $0xc,%esp
  8002b0:	6a ff                	push   $0xffffffff
  8002b2:	6a 00                	push   $0x0
  8002b4:	53                   	push   %ebx
  8002b5:	e8 c9 a4 00 00       	call   80a783 <thread_wait>
	lwip_core_lock();
  8002ba:	e8 85 a2 00 00       	call   80a544 <lwip_core_lock>
	ipaddr.addr  = init_addr;
  8002bf:	89 75 e8             	mov    %esi,-0x18(%ebp)
	netmask.addr = init_mask;
  8002c2:	8b 45 0c             	mov    0xc(%ebp),%eax
  8002c5:	89 45 ec             	mov    %eax,-0x14(%ebp)
	gateway.addr = init_gw;
  8002c8:	8b 45 10             	mov    0x10(%ebp),%eax
  8002cb:	89 45 f0             	mov    %eax,-0x10(%ebp)
	if (0 == netif_add(nif, &ipaddr, &netmask, &gateway,
  8002ce:	83 c4 0c             	add    $0xc,%esp
  8002d1:	68 fe 64 80 00       	push   $0x8064fe
  8002d6:	68 e3 aa 80 00       	push   $0x80aae3
  8002db:	68 14 50 81 00       	push   $0x815014
  8002e0:	8d 45 f0             	lea    -0x10(%ebp),%eax
  8002e3:	50                   	push   %eax
  8002e4:	8d 45 ec             	lea    -0x14(%ebp),%eax
  8002e7:	50                   	push   %eax
  8002e8:	8d 45 e8             	lea    -0x18(%ebp),%eax
  8002eb:	50                   	push   %eax
  8002ec:	68 00 b2 b3 00       	push   $0xb3b200
  8002f1:	e8 09 43 00 00       	call   8045ff <netif_add>
  8002f6:	83 c4 20             	add    $0x20,%esp
  8002f9:	85 c0                	test   %eax,%eax
  8002fb:	0f 84 cc 00 00 00    	je     8003cd <serve_init+0x14d>
	netif_set_default(nif);
  800301:	83 ec 0c             	sub    $0xc,%esp
  800304:	68 00 b2 b3 00       	push   $0xb3b200
  800309:	e8 a3 43 00 00       	call   8046b1 <netif_set_default>
	netif_set_up(nif);
  80030e:	c7 04 24 00 b2 b3 00 	movl   $0xb3b200,(%esp)
  800315:	e8 a4 43 00 00       	call   8046be <netif_set_up>
	start_timer(&t_arp, &etharp_tmr, "arp timer", ARP_TMR_INTERVAL);
  80031a:	c7 04 24 88 13 00 00 	movl   $0x1388,(%esp)
  800321:	b9 6f 0f 81 00       	mov    $0x810f6f,%ecx
  800326:	ba c7 94 80 00       	mov    $0x8094c7,%edx
  80032b:	b8 34 50 81 00       	mov    $0x815034,%eax
  800330:	e8 18 fd ff ff       	call   80004d <start_timer>
	start_timer(&t_tcpf, &tcp_fasttmr, "tcp f timer", TCP_FAST_INTERVAL);
  800335:	c7 04 24 fa 00 00 00 	movl   $0xfa,(%esp)
  80033c:	b9 79 0f 81 00       	mov    $0x810f79,%ecx
  800341:	ba 8d 56 80 00       	mov    $0x80568d,%edx
  800346:	b8 28 50 81 00       	mov    $0x815028,%eax
  80034b:	e8 fd fc ff ff       	call   80004d <start_timer>
	start_timer(&t_tcps, &tcp_slowtmr, "tcp s timer", TCP_SLOW_INTERVAL);
  800350:	c7 04 24 f4 01 00 00 	movl   $0x1f4,(%esp)
  800357:	b9 85 0f 81 00       	mov    $0x810f85,%ecx
  80035c:	ba 46 5c 80 00       	mov    $0x805c46,%edx
  800361:	b8 1c 50 81 00       	mov    $0x81501c,%eax
  800366:	e8 e2 fc ff ff       	call   80004d <start_timer>
	cprintf("ns: %02x:%02x:%02x:%02x:%02x:%02x"
  80036b:	89 34 24             	mov    %esi,(%esp)
  80036e:	e8 b2 72 00 00       	call   807625 <inet_ntoa>
  800373:	50                   	push   %eax
  800374:	0f b6 05 2a b2 b3 00 	movzbl 0xb3b22a,%eax
  80037b:	50                   	push   %eax
  80037c:	0f b6 05 29 b2 b3 00 	movzbl 0xb3b229,%eax
  800383:	50                   	push   %eax
  800384:	0f b6 05 28 b2 b3 00 	movzbl 0xb3b228,%eax
  80038b:	50                   	push   %eax
  80038c:	0f b6 05 27 b2 b3 00 	movzbl 0xb3b227,%eax
  800393:	50                   	push   %eax
  800394:	0f b6 05 26 b2 b3 00 	movzbl 0xb3b226,%eax
  80039b:	50                   	push   %eax
  80039c:	0f b6 05 25 b2 b3 00 	movzbl 0xb3b225,%eax
  8003a3:	50                   	push   %eax
  8003a4:	68 84 0e 81 00       	push   $0x810e84
  8003a9:	e8 9d e2 00 00       	call   80e64b <cprintf>
	lwip_core_unlock();
  8003ae:	83 c4 30             	add    $0x30,%esp
  8003b1:	e8 8f a1 00 00       	call   80a545 <lwip_core_unlock>
	cprintf("NS: TCP/IP initialized.\n");
  8003b6:	83 ec 0c             	sub    $0xc,%esp
  8003b9:	68 91 0f 81 00       	push   $0x810f91
  8003be:	e8 88 e2 00 00       	call   80e64b <cprintf>
}
  8003c3:	83 c4 10             	add    $0x10,%esp
  8003c6:	8d 65 f8             	lea    -0x8(%ebp),%esp
  8003c9:	5b                   	pop    %ebx
  8003ca:	5e                   	pop    %esi
  8003cb:	5d                   	pop    %ebp
  8003cc:	c3                   	ret    
		panic("lwip_init: error in netif_add\n");
  8003cd:	83 ec 04             	sub    $0x4,%esp
  8003d0:	68 64 0e 81 00       	push   $0x810e64
  8003d5:	6a 5c                	push   $0x5c
  8003d7:	68 55 0f 81 00       	push   $0x810f55
  8003dc:	e8 8f e1 00 00       	call   80e570 <_panic>

008003e1 <serve>:

void
serve(void) {
  8003e1:	55                   	push   %ebp
  8003e2:	89 e5                	mov    %esp,%ebp
  8003e4:	57                   	push   %edi
  8003e5:	56                   	push   %esi
  8003e6:	53                   	push   %ebx
  8003e7:	83 ec 2c             	sub    $0x2c,%esp
		for (i = 0; thread_wakeups_pending() && i < 32; ++i)
			thread_yield();

		perm = 0;
		va = get_buffer();
		reqno = ipc_recv((int32_t *) &whom, (void *) va, &perm);
  8003ea:	8d 7d e0             	lea    -0x20(%ebp),%edi
  8003ed:	e9 9d 00 00 00       	jmp    80048f <serve+0xae>
		perm = 0;
  8003f2:	c7 45 e0 00 00 00 00 	movl   $0x0,-0x20(%ebp)
	for (i = 0; i < QUEUE_SIZE; i++)
  8003f9:	b8 00 00 00 00       	mov    $0x0,%eax
		if (!buse[i]) break;
  8003fe:	80 b8 00 50 81 00 00 	cmpb   $0x0,0x815000(%eax)
  800405:	74 1c                	je     800423 <serve+0x42>
	for (i = 0; i < QUEUE_SIZE; i++)
  800407:	83 c0 01             	add    $0x1,%eax
  80040a:	83 f8 14             	cmp    $0x14,%eax
  80040d:	75 ef                	jne    8003fe <serve+0x1d>
		panic("NS: buffer overflow");
  80040f:	83 ec 04             	sub    $0x4,%esp
  800412:	68 aa 0f 81 00       	push   $0x810faa
  800417:	6a 3f                	push   $0x3f
  800419:	68 55 0f 81 00       	push   $0x810f55
  80041e:	e8 4d e1 00 00       	call   80e570 <_panic>
	va = (void *)(REQVA + i * PGSIZE);
  800423:	8d 98 eb ff 00 00    	lea    0xffeb(%eax),%ebx
  800429:	c1 e3 0c             	shl    $0xc,%ebx
	buse[i] = 1;
  80042c:	c6 80 00 50 81 00 01 	movb   $0x1,0x815000(%eax)
		reqno = ipc_recv((int32_t *) &whom, (void *) va, &perm);
  800433:	83 ec 04             	sub    $0x4,%esp
  800436:	57                   	push   %edi
  800437:	53                   	push   %ebx
  800438:	8d 45 e4             	lea    -0x1c(%ebp),%eax
  80043b:	50                   	push   %eax
  80043c:	e8 8d f1 00 00       	call   80f5ce <ipc_recv>
  800441:	89 c6                	mov    %eax,%esi
		if (debug) {
			cprintf("ns req %d from %08x\n", reqno, whom);
		}

		// first take care of requests that do not contain an argument page
		if (reqno == NSREQ_TIMER) {
  800443:	83 c4 10             	add    $0x10,%esp
  800446:	83 f8 0c             	cmp    $0xc,%eax
  800449:	74 69                	je     8004b4 <serve+0xd3>
			put_buffer(va);
			continue;
		}

		// All remaining requests must contain an argument page
		if (!(perm & PTE_P)) {
  80044b:	f6 45 e0 01          	testb  $0x1,-0x20(%ebp)
  80044f:	0f 84 ba 00 00 00    	je     80050f <serve+0x12e>
			continue; // just leave it hanging...
		}

		// Since some lwIP socket calls will block, create a thread and
		// process the rest of the request in the thread.
		struct st_args *args = malloc(sizeof(struct st_args));
  800455:	83 ec 0c             	sub    $0xc,%esp
  800458:	6a 0c                	push   $0xc
  80045a:	e8 21 03 01 00       	call   810780 <malloc>
		if (!args)
  80045f:	83 c4 10             	add    $0x10,%esp
  800462:	85 c0                	test   %eax,%eax
  800464:	0f 84 bd 00 00 00    	je     800527 <serve+0x146>
			panic("could not allocate thread args structure");

		args->reqno = reqno;
  80046a:	89 30                	mov    %esi,(%eax)
		args->whom = whom;
  80046c:	8b 55 e4             	mov    -0x1c(%ebp),%edx
  80046f:	89 50 04             	mov    %edx,0x4(%eax)
		args->req = va;
  800472:	89 58 08             	mov    %ebx,0x8(%eax)

		thread_create(0, "serve_thread", serve_thread, (uint32_t)args);
  800475:	50                   	push   %eax
  800476:	68 c4 00 80 00       	push   $0x8000c4
  80047b:	68 be 0f 81 00       	push   $0x810fbe
  800480:	6a 00                	push   $0x0
  800482:	e8 50 a1 00 00       	call   80a5d7 <thread_create>
		thread_yield(); // let the thread created run
  800487:	e8 74 a2 00 00       	call   80a700 <thread_yield>
  80048c:	83 c4 10             	add    $0x10,%esp
		for (i = 0; thread_wakeups_pending() && i < 32; ++i)
  80048f:	bb 00 00 00 00       	mov    $0x0,%ebx
  800494:	e8 f5 a0 00 00       	call   80a58e <thread_wakeups_pending>
  800499:	85 c0                	test   %eax,%eax
  80049b:	0f 84 51 ff ff ff    	je     8003f2 <serve+0x11>
  8004a1:	83 fb 1f             	cmp    $0x1f,%ebx
  8004a4:	0f 8f 48 ff ff ff    	jg     8003f2 <serve+0x11>
			thread_yield();
  8004aa:	e8 51 a2 00 00       	call   80a700 <thread_yield>
		for (i = 0; thread_wakeups_pending() && i < 32; ++i)
  8004af:	83 c3 01             	add    $0x1,%ebx
  8004b2:	eb e0                	jmp    800494 <serve+0xb3>
			process_timer(whom);
  8004b4:	8b 75 e4             	mov    -0x1c(%ebp),%esi
	if (envid != timer_envid) {
  8004b7:	3b 35 18 50 81 00    	cmp    0x815018,%esi
  8004bd:	74 23                	je     8004e2 <serve+0x101>
		cprintf("NS: received timer interrupt from envid %x not timer env\n", envid);
  8004bf:	83 ec 08             	sub    $0x8,%esp
  8004c2:	56                   	push   %esi
  8004c3:	68 c0 0e 81 00       	push   $0x810ec0
  8004c8:	e8 7e e1 00 00       	call   80e64b <cprintf>
  8004cd:	83 c4 10             	add    $0x10,%esp
	int i = ((uint32_t)va - REQVA) / PGSIZE;
  8004d0:	81 eb 00 b0 fe 0f    	sub    $0xffeb000,%ebx
  8004d6:	c1 eb 0c             	shr    $0xc,%ebx
	buse[i] = 0;
  8004d9:	c6 83 00 50 81 00 00 	movb   $0x0,0x815000(%ebx)
  8004e0:	eb ad                	jmp    80048f <serve+0xae>
	start = sys_time_msec();
  8004e2:	e8 23 ed 00 00       	call   80f20a <sys_time_msec>
  8004e7:	89 45 d4             	mov    %eax,-0x2c(%ebp)
	thread_yield();
  8004ea:	e8 11 a2 00 00       	call   80a700 <thread_yield>
	now = sys_time_msec();
  8004ef:	e8 16 ed 00 00       	call   80f20a <sys_time_msec>
	ipc_send(envid, to, 0, 0);
  8004f4:	6a 00                	push   $0x0
  8004f6:	6a 00                	push   $0x0
	to = TIMER_INTERVAL - (now - start);
  8004f8:	8b 55 d4             	mov    -0x2c(%ebp),%edx
  8004fb:	81 c2 fa 00 00 00    	add    $0xfa,%edx
  800501:	29 c2                	sub    %eax,%edx
	ipc_send(envid, to, 0, 0);
  800503:	52                   	push   %edx
  800504:	56                   	push   %esi
  800505:	e8 37 f1 00 00       	call   80f641 <ipc_send>
  80050a:	83 c4 10             	add    $0x10,%esp
  80050d:	eb c1                	jmp    8004d0 <serve+0xef>
			cprintf("Invalid request from %08x: no argument page\n", whom);
  80050f:	83 ec 08             	sub    $0x8,%esp
  800512:	ff 75 e4             	pushl  -0x1c(%ebp)
  800515:	68 fc 0e 81 00       	push   $0x810efc
  80051a:	e8 2c e1 00 00       	call   80e64b <cprintf>
			continue; // just leave it hanging...
  80051f:	83 c4 10             	add    $0x10,%esp
  800522:	e9 68 ff ff ff       	jmp    80048f <serve+0xae>
			panic("could not allocate thread args structure");
  800527:	83 ec 04             	sub    $0x4,%esp
  80052a:	68 2c 0f 81 00       	push   $0x810f2c
  80052f:	68 27 01 00 00       	push   $0x127
  800534:	68 55 0f 81 00       	push   $0x810f55
  800539:	e8 32 e0 00 00       	call   80e570 <_panic>

0080053e <tmain>:
	}
}

static void
tmain(uint32_t arg) {
  80053e:	55                   	push   %ebp
  80053f:	89 e5                	mov    %esp,%ebp
  800541:	56                   	push   %esi
  800542:	53                   	push   %ebx
	serve_init(inet_addr(IP),
  800543:	83 ec 0c             	sub    $0xc,%esp
  800546:	68 cb 0f 81 00       	push   $0x810fcb
  80054b:	e8 84 73 00 00       	call   8078d4 <inet_addr>
  800550:	89 c6                	mov    %eax,%esi
  800552:	c7 04 24 d4 0f 81 00 	movl   $0x810fd4,(%esp)
  800559:	e8 76 73 00 00       	call   8078d4 <inet_addr>
  80055e:	89 c3                	mov    %eax,%ebx
  800560:	c7 04 24 e2 0f 81 00 	movl   $0x810fe2,(%esp)
  800567:	e8 68 73 00 00       	call   8078d4 <inet_addr>
  80056c:	83 c4 0c             	add    $0xc,%esp
  80056f:	56                   	push   %esi
  800570:	53                   	push   %ebx
  800571:	50                   	push   %eax
  800572:	e8 09 fd ff ff       	call   800280 <serve_init>
		   inet_addr(MASK),
		   inet_addr(DEFAULT));
	serve();
  800577:	e8 65 fe ff ff       	call   8003e1 <serve>

0080057c <umain>:
}

void
umain(int argc, char **argv)
{
  80057c:	55                   	push   %ebp
  80057d:	89 e5                	mov    %esp,%ebp
  80057f:	53                   	push   %ebx
  800580:	83 ec 04             	sub    $0x4,%esp
	envid_t ns_envid = sys_getenvid();
  800583:	e8 53 ea 00 00       	call   80efdb <sys_getenvid>
  800588:	89 c3                	mov    %eax,%ebx

	binaryname = "ns";
  80058a:	c7 05 e8 42 81 00 26 	movl   $0x813a26,0x8142e8
  800591:	3a 81 00 

	// fork off the timer thread which will send us periodic messages
	timer_envid = fork();
  800594:	e8 07 ee 00 00       	call   80f3a0 <fork>
  800599:	a3 18 50 81 00       	mov    %eax,0x815018
	if (timer_envid < 0)
  80059e:	85 c0                	test   %eax,%eax
  8005a0:	78 43                	js     8005e5 <umain+0x69>
		panic("error forking");
	else if (timer_envid == 0) {
  8005a2:	74 58                	je     8005fc <umain+0x80>
		return;
	}

	// fork off the input thread which will poll the NIC driver for input
	// packets
	input_envid = fork();
  8005a4:	e8 f7 ed 00 00       	call   80f3a0 <fork>
	if (input_envid < 0)
  8005a9:	85 c0                	test   %eax,%eax
  8005ab:	78 65                	js     800612 <umain+0x96>
		panic("error forking");
	else if (input_envid == 0) {
  8005ad:	74 7a                	je     800629 <umain+0xad>
		return;
	}

	// fork off the output thread that will send the packets to the NIC
	// driver
	output_envid = fork();
  8005af:	e8 ec ed 00 00       	call   80f3a0 <fork>
  8005b4:	a3 14 50 81 00       	mov    %eax,0x815014
	if (output_envid < 0)
  8005b9:	85 c0                	test   %eax,%eax
  8005bb:	78 7a                	js     800637 <umain+0xbb>
		panic("error forking");
	else if (output_envid == 0) {
  8005bd:	0f 84 8b 00 00 00    	je     80064e <umain+0xd2>
		return;
	}

	// lwIP requires a user threading library; start the library and jump
	// into a thread to continue initialization.
	thread_init();
  8005c3:	e8 7e 9f 00 00       	call   80a546 <thread_init>
	thread_create(0, "main", tmain, 0);
  8005c8:	6a 00                	push   $0x0
  8005ca:	68 3e 05 80 00       	push   $0x80053e
  8005cf:	68 fa 0f 81 00       	push   $0x810ffa
  8005d4:	6a 00                	push   $0x0
  8005d6:	e8 fc 9f 00 00       	call   80a5d7 <thread_create>
	thread_yield();
  8005db:	e8 20 a1 00 00       	call   80a700 <thread_yield>
  8005e0:	83 c4 10             	add    $0x10,%esp
  8005e3:	eb 28                	jmp    80060d <umain+0x91>
		panic("error forking");
  8005e5:	83 ec 04             	sub    $0x4,%esp
  8005e8:	68 ec 0f 81 00       	push   $0x810fec
  8005ed:	68 44 01 00 00       	push   $0x144
  8005f2:	68 55 0f 81 00       	push   $0x810f55
  8005f7:	e8 74 df 00 00       	call   80e570 <_panic>
		timer(ns_envid, TIMER_INTERVAL);
  8005fc:	83 ec 08             	sub    $0x8,%esp
  8005ff:	68 fa 00 00 00       	push   $0xfa
  800604:	53                   	push   %ebx
  800605:	e8 52 00 00 00       	call   80065c <timer>
		return;
  80060a:	83 c4 10             	add    $0x10,%esp
	// never coming here!
}
  80060d:	8b 5d fc             	mov    -0x4(%ebp),%ebx
  800610:	c9                   	leave  
  800611:	c3                   	ret    
		panic("error forking");
  800612:	83 ec 04             	sub    $0x4,%esp
  800615:	68 ec 0f 81 00       	push   $0x810fec
  80061a:	68 4e 01 00 00       	push   $0x14e
  80061f:	68 55 0f 81 00       	push   $0x810f55
  800624:	e8 47 df 00 00       	call   80e570 <_panic>
		input(ns_envid);
  800629:	83 ec 0c             	sub    $0xc,%esp
  80062c:	53                   	push   %ebx
  80062d:	e8 bd 00 00 00       	call   8006ef <input>
		return;
  800632:	83 c4 10             	add    $0x10,%esp
  800635:	eb d6                	jmp    80060d <umain+0x91>
		panic("error forking");
  800637:	83 ec 04             	sub    $0x4,%esp
  80063a:	68 ec 0f 81 00       	push   $0x810fec
  80063f:	68 58 01 00 00       	push   $0x158
  800644:	68 55 0f 81 00       	push   $0x810f55
  800649:	e8 22 df 00 00       	call   80e570 <_panic>
		output(ns_envid);
  80064e:	83 ec 0c             	sub    $0xc,%esp
  800651:	53                   	push   %ebx
  800652:	e8 a3 00 00 00       	call   8006fa <output>
		return;
  800657:	83 c4 10             	add    $0x10,%esp
  80065a:	eb b1                	jmp    80060d <umain+0x91>

0080065c <timer>:
#include "ns.h"

void
timer(envid_t ns_envid, uint32_t initial_to) {
  80065c:	55                   	push   %ebp
  80065d:	89 e5                	mov    %esp,%ebp
  80065f:	57                   	push   %edi
  800660:	56                   	push   %esi
  800661:	53                   	push   %ebx
  800662:	83 ec 1c             	sub    $0x1c,%esp
  800665:	8b 75 08             	mov    0x8(%ebp),%esi
	int r;
	uint32_t stop = sys_time_msec() + initial_to;
  800668:	e8 9d eb 00 00       	call   80f20a <sys_time_msec>
  80066d:	03 45 0c             	add    0xc(%ebp),%eax
  800670:	89 c3                	mov    %eax,%ebx

	binaryname = "ns_timer";
  800672:	c7 05 e8 42 81 00 2c 	movl   $0x81102c,0x8142e8
  800679:	10 81 00 

		ipc_send(ns_envid, NSREQ_TIMER, 0, 0);

		while (1) {
			uint32_t to, whom;
			to = ipc_recv((int32_t *) &whom, 0, 0);
  80067c:	8d 7d e4             	lea    -0x1c(%ebp),%edi
  80067f:	eb 33                	jmp    8006b4 <timer+0x58>
		if (r < 0)
  800681:	85 c0                	test   %eax,%eax
  800683:	78 45                	js     8006ca <timer+0x6e>
		ipc_send(ns_envid, NSREQ_TIMER, 0, 0);
  800685:	6a 00                	push   $0x0
  800687:	6a 00                	push   $0x0
  800689:	6a 0c                	push   $0xc
  80068b:	56                   	push   %esi
  80068c:	e8 b0 ef 00 00       	call   80f641 <ipc_send>
  800691:	83 c4 10             	add    $0x10,%esp
			to = ipc_recv((int32_t *) &whom, 0, 0);
  800694:	83 ec 04             	sub    $0x4,%esp
  800697:	6a 00                	push   $0x0
  800699:	6a 00                	push   $0x0
  80069b:	57                   	push   %edi
  80069c:	e8 2d ef 00 00       	call   80f5ce <ipc_recv>
  8006a1:	89 c3                	mov    %eax,%ebx

			if (whom != ns_envid) {
  8006a3:	8b 45 e4             	mov    -0x1c(%ebp),%eax
  8006a6:	83 c4 10             	add    $0x10,%esp
  8006a9:	39 f0                	cmp    %esi,%eax
  8006ab:	75 2f                	jne    8006dc <timer+0x80>
				cprintf("NS TIMER: timer thread got IPC message from env %x not NS\n", whom);
				continue;
			}

			stop = sys_time_msec() + to;
  8006ad:	e8 58 eb 00 00       	call   80f20a <sys_time_msec>
  8006b2:	01 c3                	add    %eax,%ebx
		while((r = sys_time_msec()) < stop && r >= 0) {
  8006b4:	e8 51 eb 00 00       	call   80f20a <sys_time_msec>
  8006b9:	89 c2                	mov    %eax,%edx
  8006bb:	85 c0                	test   %eax,%eax
  8006bd:	78 c2                	js     800681 <timer+0x25>
  8006bf:	39 d8                	cmp    %ebx,%eax
  8006c1:	73 be                	jae    800681 <timer+0x25>
			sys_yield();
  8006c3:	e8 32 e9 00 00       	call   80effa <sys_yield>
  8006c8:	eb ea                	jmp    8006b4 <timer+0x58>
			panic("sys_time_msec: %e", r);
  8006ca:	52                   	push   %edx
  8006cb:	68 35 10 81 00       	push   $0x811035
  8006d0:	6a 0f                	push   $0xf
  8006d2:	68 47 10 81 00       	push   $0x811047
  8006d7:	e8 94 de 00 00       	call   80e570 <_panic>
				cprintf("NS TIMER: timer thread got IPC message from env %x not NS\n", whom);
  8006dc:	83 ec 08             	sub    $0x8,%esp
  8006df:	50                   	push   %eax
  8006e0:	68 54 10 81 00       	push   $0x811054
  8006e5:	e8 61 df 00 00       	call   80e64b <cprintf>
				continue;
  8006ea:	83 c4 10             	add    $0x10,%esp
  8006ed:	eb a5                	jmp    800694 <timer+0x38>

008006ef <input>:
extern union Nsipc nsipcbuf;

void
input(envid_t ns_envid)
{
	binaryname = "ns_input";
  8006ef:	c7 05 e8 42 81 00 8f 	movl   $0x81108f,0x8142e8
  8006f6:	10 81 00 
	// 	- read a packet from the device driver
	//	- send it to the network server
	// Hint: When you IPC a page to the network server, it will be
	// reading from it for a while, so don't immediately receive
	// another packet in to the same physical page.
}
  8006f9:	c3                   	ret    

008006fa <output>:
extern union Nsipc nsipcbuf;

void
output(envid_t ns_envid)
{
	binaryname = "ns_output";
  8006fa:	c7 05 e8 42 81 00 98 	movl   $0x811098,0x8142e8
  800701:	10 81 00 

	// LAB 6: Your code here:
	// 	- read a packet from the network server
	//	- send the packet to the device driver
}
  800704:	c3                   	ret    

00800705 <get_socket>:
 * @param s externally used socket index
 * @return struct lwip_socket for the socket or NULL if not found
 */
static struct lwip_socket *
get_socket(int s)
{
  800705:	89 c2                	mov    %eax,%edx
  struct lwip_socket *sock;

  if ((s < 0) || (s >= NUM_SOCKETS)) {
  800707:	83 f8 1f             	cmp    $0x1f,%eax
  80070a:	77 18                	ja     800724 <get_socket+0x1f>
    LWIP_DEBUGF(SOCKETS_DEBUG, ("get_socket(%d): invalid\n", s));
    set_errno(EBADF);
    return NULL;
  }

  sock = &sockets[s];
  80070c:	8d 04 80             	lea    (%eax,%eax,4),%eax
  80070f:	8d 04 85 60 50 81 00 	lea    0x815060(,%eax,4),%eax

  if (!sock->conn) {
  800716:	8d 14 92             	lea    (%edx,%edx,4),%edx
  800719:	83 3c 95 60 50 81 00 	cmpl   $0x0,0x815060(,%edx,4)
  800720:	00 
  800721:	74 11                	je     800734 <get_socket+0x2f>
    set_errno(EBADF);
    return NULL;
  }

  return sock;
}
  800723:	c3                   	ret    
    set_errno(EBADF);
  800724:	c7 05 e0 b1 b3 00 09 	movl   $0x9,0xb3b1e0
  80072b:	00 00 00 
    return NULL;
  80072e:	b8 00 00 00 00       	mov    $0x0,%eax
  800733:	c3                   	ret    
    set_errno(EBADF);
  800734:	c7 05 e0 b1 b3 00 09 	movl   $0x9,0xb3b1e0
  80073b:	00 00 00 
    return NULL;
  80073e:	b8 00 00 00 00       	mov    $0x0,%eax
  800743:	eb de                	jmp    800723 <get_socket+0x1e>

00800745 <lwip_selscan>:
 * @param exceptset not yet implemented
 * @return number of sockets that had events (read+write)
 */
static int
lwip_selscan(int maxfdp1, fd_set *readset, fd_set *writeset, fd_set *exceptset)
{
  800745:	55                   	push   %ebp
  800746:	89 e5                	mov    %esp,%ebp
  800748:	57                   	push   %edi
  800749:	56                   	push   %esi
  80074a:	53                   	push   %ebx
  80074b:	83 ec 40             	sub    $0x40,%esp
  80074e:	89 45 d0             	mov    %eax,-0x30(%ebp)
  800751:	89 55 cc             	mov    %edx,-0x34(%ebp)
  800754:	89 4d c8             	mov    %ecx,-0x38(%ebp)
  int i, nready = 0;
  fd_set lreadset, lwriteset, lexceptset;
  struct lwip_socket *p_sock;
  
  FD_ZERO(&lreadset);
  800757:	6a 04                	push   $0x4
  800759:	6a 00                	push   $0x0
  80075b:	8d 45 e4             	lea    -0x1c(%ebp),%eax
  80075e:	50                   	push   %eax
  80075f:	e8 09 e6 00 00       	call   80ed6d <memset>
  FD_ZERO(&lwriteset);
  800764:	83 c4 0c             	add    $0xc,%esp
  800767:	6a 04                	push   $0x4
  800769:	6a 00                	push   $0x0
  80076b:	8d 45 e0             	lea    -0x20(%ebp),%eax
  80076e:	50                   	push   %eax
  80076f:	e8 f9 e5 00 00       	call   80ed6d <memset>
  FD_ZERO(&lexceptset);
  800774:	83 c4 0c             	add    $0xc,%esp
  800777:	6a 04                	push   $0x4
  800779:	6a 00                	push   $0x0
  80077b:	8d 45 dc             	lea    -0x24(%ebp),%eax
  80077e:	50                   	push   %eax
  80077f:	e8 e9 e5 00 00       	call   80ed6d <memset>
  
  /* Go through each socket in each list to count number of sockets which
  currently match */
  for(i = 0; i < maxfdp1; i++) {
  800784:	83 c4 10             	add    $0x10,%esp
  int i, nready = 0;
  800787:	c7 45 c4 00 00 00 00 	movl   $0x0,-0x3c(%ebp)
  for(i = 0; i < maxfdp1; i++) {
  80078e:	bf 00 00 00 00       	mov    $0x0,%edi
  800793:	eb 33                	jmp    8007c8 <lwip_selscan+0x83>
    if (FD_ISSET(i, readset)) {
      /* See if netconn of this socket is ready for read */
      p_sock = get_socket(i);
  800795:	89 f8                	mov    %edi,%eax
  800797:	e8 69 ff ff ff       	call   800705 <get_socket>
      if (p_sock && (p_sock->lastdata || p_sock->rcvevent)) {
  80079c:	85 c0                	test   %eax,%eax
  80079e:	74 4c                	je     8007ec <lwip_selscan+0xa7>
  8007a0:	83 78 04 00          	cmpl   $0x0,0x4(%eax)
  8007a4:	74 16                	je     8007bc <lwip_selscan+0x77>
        FD_SET(i, &lreadset);
  8007a6:	b8 01 00 00 00       	mov    $0x1,%eax
  8007ab:	89 f1                	mov    %esi,%ecx
  8007ad:	d3 e0                	shl    %cl,%eax
  8007af:	8b 55 d4             	mov    -0x2c(%ebp),%edx
  8007b2:	08 44 15 e4          	or     %al,-0x1c(%ebp,%edx,1)
        LWIP_DEBUGF(SOCKETS_DEBUG, ("lwip_selscan: fd=%d ready for reading\n", i));
        nready++;
  8007b6:	83 45 c4 01          	addl   $0x1,-0x3c(%ebp)
  8007ba:	eb 30                	jmp    8007ec <lwip_selscan+0xa7>
      if (p_sock && (p_sock->lastdata || p_sock->rcvevent)) {
  8007bc:	66 83 78 0a 00       	cmpw   $0x0,0xa(%eax)
  8007c1:	74 29                	je     8007ec <lwip_selscan+0xa7>
  8007c3:	eb e1                	jmp    8007a6 <lwip_selscan+0x61>
  for(i = 0; i < maxfdp1; i++) {
  8007c5:	83 c7 01             	add    $0x1,%edi
  8007c8:	3b 7d d0             	cmp    -0x30(%ebp),%edi
  8007cb:	7d 53                	jge    800820 <lwip_selscan+0xdb>
    if (FD_ISSET(i, readset)) {
  8007cd:	8d 5f 07             	lea    0x7(%edi),%ebx
  8007d0:	85 ff                	test   %edi,%edi
  8007d2:	0f 49 df             	cmovns %edi,%ebx
  8007d5:	c1 fb 03             	sar    $0x3,%ebx
  8007d8:	89 5d d4             	mov    %ebx,-0x2c(%ebp)
  8007db:	89 fe                	mov    %edi,%esi
  8007dd:	83 e6 07             	and    $0x7,%esi
  8007e0:	8b 45 cc             	mov    -0x34(%ebp),%eax
  8007e3:	0f b6 04 18          	movzbl (%eax,%ebx,1),%eax
  8007e7:	0f a3 f0             	bt     %esi,%eax
  8007ea:	72 a9                	jb     800795 <lwip_selscan+0x50>
      }
    }
    if (FD_ISSET(i, writeset)) {
  8007ec:	8b 45 c8             	mov    -0x38(%ebp),%eax
  8007ef:	0f b6 04 18          	movzbl (%eax,%ebx,1),%eax
  8007f3:	0f a3 f0             	bt     %esi,%eax
  8007f6:	73 cd                	jae    8007c5 <lwip_selscan+0x80>
      /* See if netconn of this socket is ready for write */
      p_sock = get_socket(i);
  8007f8:	89 f8                	mov    %edi,%eax
  8007fa:	e8 06 ff ff ff       	call   800705 <get_socket>
      if (p_sock && p_sock->sendevent) {
  8007ff:	85 c0                	test   %eax,%eax
  800801:	74 c2                	je     8007c5 <lwip_selscan+0x80>
  800803:	66 83 78 0c 00       	cmpw   $0x0,0xc(%eax)
  800808:	74 bb                	je     8007c5 <lwip_selscan+0x80>
        FD_SET(i, &lwriteset);
  80080a:	b8 01 00 00 00       	mov    $0x1,%eax
  80080f:	89 f1                	mov    %esi,%ecx
  800811:	d3 e0                	shl    %cl,%eax
  800813:	8b 55 d4             	mov    -0x2c(%ebp),%edx
  800816:	08 44 15 e0          	or     %al,-0x20(%ebp,%edx,1)
        LWIP_DEBUGF(SOCKETS_DEBUG, ("lwip_selscan: fd=%d ready for writing\n", i));
        nready++;
  80081a:	83 45 c4 01          	addl   $0x1,-0x3c(%ebp)
  80081e:	eb a5                	jmp    8007c5 <lwip_selscan+0x80>
      }
    }
  }
  *readset = lreadset;
  800820:	8b 45 e4             	mov    -0x1c(%ebp),%eax
  800823:	8b 55 cc             	mov    -0x34(%ebp),%edx
  800826:	89 02                	mov    %eax,(%edx)
  *writeset = lwriteset;
  800828:	8b 45 e0             	mov    -0x20(%ebp),%eax
  80082b:	8b 4d c8             	mov    -0x38(%ebp),%ecx
  80082e:	89 01                	mov    %eax,(%ecx)
  FD_ZERO(exceptset);
  800830:	83 ec 04             	sub    $0x4,%esp
  800833:	6a 04                	push   $0x4
  800835:	6a 00                	push   $0x0
  800837:	ff 75 08             	pushl  0x8(%ebp)
  80083a:	e8 2e e5 00 00       	call   80ed6d <memset>
  
  return nready;
}
  80083f:	8b 45 c4             	mov    -0x3c(%ebp),%eax
  800842:	8d 65 f4             	lea    -0xc(%ebp),%esp
  800845:	5b                   	pop    %ebx
  800846:	5e                   	pop    %esi
  800847:	5f                   	pop    %edi
  800848:	5d                   	pop    %ebp
  800849:	c3                   	ret    

0080084a <lwip_getaddrname>:
  return lwip_close(s); /* XXX temporary hack until proper implementation */
}

static int
lwip_getaddrname(int s, struct sockaddr *name, socklen_t *namelen, u8_t local)
{
  80084a:	55                   	push   %ebp
  80084b:	89 e5                	mov    %esp,%ebp
  80084d:	57                   	push   %edi
  80084e:	56                   	push   %esi
  80084f:	53                   	push   %ebx
  800850:	83 ec 3c             	sub    $0x3c,%esp
  800853:	89 55 c4             	mov    %edx,-0x3c(%ebp)
  800856:	89 cf                	mov    %ecx,%edi
  800858:	8b 75 08             	mov    0x8(%ebp),%esi
  struct lwip_socket *sock;
  struct sockaddr_in sin;
  struct ip_addr naddr;

  sock = get_socket(s);
  80085b:	e8 a5 fe ff ff       	call   800705 <get_socket>
  if (!sock)
  800860:	85 c0                	test   %eax,%eax
  800862:	0f 84 86 00 00 00    	je     8008ee <lwip_getaddrname+0xa4>
  800868:	89 c3                	mov    %eax,%ebx
    return -1;

  memset(&sin, 0, sizeof(sin));
  80086a:	83 ec 04             	sub    $0x4,%esp
  80086d:	6a 10                	push   $0x10
  80086f:	6a 00                	push   $0x0
  800871:	8d 45 d8             	lea    -0x28(%ebp),%eax
  800874:	50                   	push   %eax
  800875:	e8 f3 e4 00 00       	call   80ed6d <memset>
  sin.sin_len = sizeof(sin);
  80087a:	c6 45 d8 10          	movb   $0x10,-0x28(%ebp)
  sin.sin_family = AF_INET;
  80087e:	c6 45 d9 02          	movb   $0x2,-0x27(%ebp)

  /* get the IP address and port */
  netconn_getaddr(sock->conn, &naddr, &sin.sin_port, local);
  800882:	89 f0                	mov    %esi,%eax
  800884:	0f b6 f0             	movzbl %al,%esi
  800887:	56                   	push   %esi
  800888:	8d 45 da             	lea    -0x26(%ebp),%eax
  80088b:	50                   	push   %eax
  80088c:	8d 45 d4             	lea    -0x2c(%ebp),%eax
  80088f:	50                   	push   %eax
  800890:	ff 33                	pushl  (%ebx)
  800892:	e8 3d a4 00 00       	call   80acd4 <netconn_getaddr>

  LWIP_DEBUGF(SOCKETS_DEBUG, ("lwip_getaddrname(%d, addr=", s));
  //ip_addr_debug_print(SOCKETS_DEBUG, &naddr);
  LWIP_DEBUGF(SOCKETS_DEBUG, (" port=%d)\n", sin.sin_port));

  sin.sin_port = htons(sin.sin_port);
  800897:	83 c4 14             	add    $0x14,%esp
  80089a:	0f b7 45 da          	movzwl -0x26(%ebp),%eax
  80089e:	50                   	push   %eax
  80089f:	e8 21 6e 00 00       	call   8076c5 <htons>
  8008a4:	66 89 45 da          	mov    %ax,-0x26(%ebp)
  sin.sin_addr.s_addr = naddr.addr;
  8008a8:	8b 45 d4             	mov    -0x2c(%ebp),%eax
  8008ab:	89 45 dc             	mov    %eax,-0x24(%ebp)

  if (*namelen > sizeof(sin))
  8008ae:	83 c4 10             	add    $0x10,%esp
  8008b1:	83 3f 10             	cmpl   $0x10,(%edi)
  8008b4:	76 06                	jbe    8008bc <lwip_getaddrname+0x72>
    *namelen = sizeof(sin);
  8008b6:	c7 07 10 00 00 00    	movl   $0x10,(%edi)

  SMEMCPY(name, &sin, *namelen);
  8008bc:	83 ec 04             	sub    $0x4,%esp
  8008bf:	ff 37                	pushl  (%edi)
  8008c1:	8d 45 d8             	lea    -0x28(%ebp),%eax
  8008c4:	50                   	push   %eax
  8008c5:	ff 75 c4             	pushl  -0x3c(%ebp)
  8008c8:	e8 4a e5 00 00       	call   80ee17 <memcpy>
  sock_set_errno(sock, 0);
  8008cd:	c7 43 10 00 00 00 00 	movl   $0x0,0x10(%ebx)
  8008d4:	c7 05 e0 b1 b3 00 00 	movl   $0x0,0xb3b1e0
  8008db:	00 00 00 
  return 0;
  8008de:	83 c4 10             	add    $0x10,%esp
  8008e1:	b8 00 00 00 00       	mov    $0x0,%eax
}
  8008e6:	8d 65 f4             	lea    -0xc(%ebp),%esp
  8008e9:	5b                   	pop    %ebx
  8008ea:	5e                   	pop    %esi
  8008eb:	5f                   	pop    %edi
  8008ec:	5d                   	pop    %ebp
  8008ed:	c3                   	ret    
    return -1;
  8008ee:	b8 ff ff ff ff       	mov    $0xffffffff,%eax
  8008f3:	eb f1                	jmp    8008e6 <lwip_getaddrname+0x9c>

008008f5 <event_callback>:
{
  8008f5:	55                   	push   %ebp
  8008f6:	89 e5                	mov    %esp,%ebp
  8008f8:	57                   	push   %edi
  8008f9:	56                   	push   %esi
  8008fa:	53                   	push   %ebx
  8008fb:	83 ec 1c             	sub    $0x1c,%esp
  8008fe:	8b 7d 08             	mov    0x8(%ebp),%edi
  800901:	8b 75 0c             	mov    0xc(%ebp),%esi
  if (conn) {
  800904:	85 ff                	test   %edi,%edi
  800906:	0f 84 8b 01 00 00    	je     800a97 <event_callback+0x1a2>
    s = conn->socket;
  80090c:	8b 5f 1c             	mov    0x1c(%edi),%ebx
    if (s < 0) {
  80090f:	85 db                	test   %ebx,%ebx
  800911:	78 4d                	js     800960 <event_callback+0x6b>
    sock = get_socket(s);
  800913:	89 d8                	mov    %ebx,%eax
  800915:	e8 eb fd ff ff       	call   800705 <get_socket>
  80091a:	89 45 e4             	mov    %eax,-0x1c(%ebp)
    if (!sock) {
  80091d:	85 c0                	test   %eax,%eax
  80091f:	0f 84 72 01 00 00    	je     800a97 <event_callback+0x1a2>
  sys_sem_wait(selectsem);
  800925:	83 ec 0c             	sub    $0xc,%esp
  800928:	ff 35 40 50 81 00    	pushl  0x815040
  80092e:	e8 8e 47 00 00       	call   8050c1 <sys_sem_wait>
  switch (evt) {
  800933:	83 c4 10             	add    $0x10,%esp
  800936:	83 fe 01             	cmp    $0x1,%esi
  800939:	0f 84 a1 00 00 00    	je     8009e0 <event_callback+0xeb>
  80093f:	85 f6                	test   %esi,%esi
  800941:	74 68                	je     8009ab <event_callback+0xb6>
  800943:	83 fe 02             	cmp    $0x2,%esi
  800946:	0f 84 9e 00 00 00    	je     8009ea <event_callback+0xf5>
  80094c:	83 fe 03             	cmp    $0x3,%esi
  80094f:	0f 85 a0 00 00 00    	jne    8009f5 <event_callback+0x100>
      sock->sendevent = 0;
  800955:	8b 45 e4             	mov    -0x1c(%ebp),%eax
  800958:	66 c7 40 0c 00 00    	movw   $0x0,0xc(%eax)
      break;
  80095e:	eb 53                	jmp    8009b3 <event_callback+0xbe>
      sys_sem_wait(socksem);
  800960:	83 ec 0c             	sub    $0xc,%esp
  800963:	ff 35 44 50 81 00    	pushl  0x815044
  800969:	e8 53 47 00 00       	call   8050c1 <sys_sem_wait>
      if (conn->socket < 0) {
  80096e:	8b 47 1c             	mov    0x1c(%edi),%eax
  800971:	83 c4 10             	add    $0x10,%esp
  800974:	85 c0                	test   %eax,%eax
  800976:	78 13                	js     80098b <event_callback+0x96>
      sys_sem_signal(socksem);
  800978:	83 ec 0c             	sub    $0xc,%esp
  80097b:	ff 35 44 50 81 00    	pushl  0x815044
  800981:	e8 d8 96 00 00       	call   80a05e <sys_sem_signal>
  800986:	83 c4 10             	add    $0x10,%esp
  800989:	eb 88                	jmp    800913 <event_callback+0x1e>
        if (evt == NETCONN_EVT_RCVPLUS) {
  80098b:	85 f6                	test   %esi,%esi
  80098d:	75 06                	jne    800995 <event_callback+0xa0>
          conn->socket--;
  80098f:	83 e8 01             	sub    $0x1,%eax
  800992:	89 47 1c             	mov    %eax,0x1c(%edi)
        sys_sem_signal(socksem);
  800995:	83 ec 0c             	sub    $0xc,%esp
  800998:	ff 35 44 50 81 00    	pushl  0x815044
  80099e:	e8 bb 96 00 00       	call   80a05e <sys_sem_signal>
        return;
  8009a3:	83 c4 10             	add    $0x10,%esp
  8009a6:	e9 ec 00 00 00       	jmp    800a97 <event_callback+0x1a2>
      sock->rcvevent++;
  8009ab:	8b 45 e4             	mov    -0x1c(%ebp),%eax
  8009ae:	66 83 40 0a 01       	addw   $0x1,0xa(%eax)
  sys_sem_signal(selectsem);
  8009b3:	83 ec 0c             	sub    $0xc,%esp
  8009b6:	ff 35 40 50 81 00    	pushl  0x815040
  8009bc:	e8 9d 96 00 00       	call   80a05e <sys_sem_signal>
        if (scb->readset && FD_ISSET(s, scb->readset))
  8009c1:	8d 73 07             	lea    0x7(%ebx),%esi
  8009c4:	83 c4 10             	add    $0x10,%esp
  8009c7:	85 db                	test   %ebx,%ebx
  8009c9:	0f 49 f3             	cmovns %ebx,%esi
  8009cc:	c1 fe 03             	sar    $0x3,%esi
  8009cf:	89 d9                	mov    %ebx,%ecx
  8009d1:	83 e1 07             	and    $0x7,%ecx
  8009d4:	bf 01 00 00 00       	mov    $0x1,%edi
  8009d9:	d3 e7                	shl    %cl,%edi
  8009db:	e9 8d 00 00 00       	jmp    800a6d <event_callback+0x178>
      sock->rcvevent--;
  8009e0:	8b 45 e4             	mov    -0x1c(%ebp),%eax
  8009e3:	66 83 68 0a 01       	subw   $0x1,0xa(%eax)
      break;
  8009e8:	eb c9                	jmp    8009b3 <event_callback+0xbe>
      sock->sendevent = 1;
  8009ea:	8b 45 e4             	mov    -0x1c(%ebp),%eax
  8009ed:	66 c7 40 0c 01 00    	movw   $0x1,0xc(%eax)
      break;
  8009f3:	eb be                	jmp    8009b3 <event_callback+0xbe>
      LWIP_ASSERT("unknown event", 0);
  8009f5:	83 ec 04             	sub    $0x4,%esp
  8009f8:	68 a2 10 81 00       	push   $0x8110a2
  8009fd:	68 17 04 00 00       	push   $0x417
  800a02:	68 b0 10 81 00       	push   $0x8110b0
  800a07:	e8 64 db 00 00       	call   80e570 <_panic>
    for (scb = select_cb_list; scb; scb = scb->next) {
  800a0c:	8b 1b                	mov    (%ebx),%ebx
  800a0e:	85 db                	test   %ebx,%ebx
  800a10:	74 74                	je     800a86 <event_callback+0x191>
      if (scb->sem_signalled == 0) {
  800a12:	83 7b 10 00          	cmpl   $0x0,0x10(%ebx)
  800a16:	75 f4                	jne    800a0c <event_callback+0x117>
        if (scb->readset && FD_ISSET(s, scb->readset))
  800a18:	8b 43 04             	mov    0x4(%ebx),%eax
  800a1b:	85 c0                	test   %eax,%eax
  800a1d:	74 12                	je     800a31 <event_callback+0x13c>
  800a1f:	0f b6 04 30          	movzbl (%eax,%esi,1),%eax
  800a23:	85 f8                	test   %edi,%eax
  800a25:	74 0a                	je     800a31 <event_callback+0x13c>
          if (sock->rcvevent)
  800a27:	8b 45 e4             	mov    -0x1c(%ebp),%eax
  800a2a:	66 83 78 0a 00       	cmpw   $0x0,0xa(%eax)
  800a2f:	75 19                	jne    800a4a <event_callback+0x155>
        if (scb->writeset && FD_ISSET(s, scb->writeset))
  800a31:	8b 43 08             	mov    0x8(%ebx),%eax
  800a34:	85 c0                	test   %eax,%eax
  800a36:	74 d4                	je     800a0c <event_callback+0x117>
  800a38:	0f b6 04 30          	movzbl (%eax,%esi,1),%eax
  800a3c:	85 f8                	test   %edi,%eax
  800a3e:	74 cc                	je     800a0c <event_callback+0x117>
          if (sock->sendevent)
  800a40:	8b 45 e4             	mov    -0x1c(%ebp),%eax
  800a43:	66 83 78 0c 00       	cmpw   $0x0,0xc(%eax)
  800a48:	74 c2                	je     800a0c <event_callback+0x117>
      scb->sem_signalled = 1;
  800a4a:	c7 43 10 01 00 00 00 	movl   $0x1,0x10(%ebx)
      sys_sem_signal(selectsem);
  800a51:	83 ec 0c             	sub    $0xc,%esp
  800a54:	ff 35 40 50 81 00    	pushl  0x815040
  800a5a:	e8 ff 95 00 00       	call   80a05e <sys_sem_signal>
      sys_sem_signal(scb->sem);
  800a5f:	83 c4 04             	add    $0x4,%esp
  800a62:	ff 73 14             	pushl  0x14(%ebx)
  800a65:	e8 f4 95 00 00       	call   80a05e <sys_sem_signal>
    sys_sem_wait(selectsem);
  800a6a:	83 c4 10             	add    $0x10,%esp
  800a6d:	83 ec 0c             	sub    $0xc,%esp
  800a70:	ff 35 40 50 81 00    	pushl  0x815040
  800a76:	e8 46 46 00 00       	call   8050c1 <sys_sem_wait>
    for (scb = select_cb_list; scb; scb = scb->next) {
  800a7b:	8b 1d 48 50 81 00    	mov    0x815048,%ebx
  800a81:	83 c4 10             	add    $0x10,%esp
  800a84:	eb 88                	jmp    800a0e <event_callback+0x119>
      sys_sem_signal(selectsem);
  800a86:	83 ec 0c             	sub    $0xc,%esp
  800a89:	ff 35 40 50 81 00    	pushl  0x815040
  800a8f:	e8 ca 95 00 00       	call   80a05e <sys_sem_signal>
      break;
  800a94:	83 c4 10             	add    $0x10,%esp
}
  800a97:	8d 65 f4             	lea    -0xc(%ebp),%esp
  800a9a:	5b                   	pop    %ebx
  800a9b:	5e                   	pop    %esi
  800a9c:	5f                   	pop    %edi
  800a9d:	5d                   	pop    %ebp
  800a9e:	c3                   	ret    

00800a9f <alloc_socket>:
{
  800a9f:	55                   	push   %ebp
  800aa0:	89 e5                	mov    %esp,%ebp
  800aa2:	56                   	push   %esi
  800aa3:	53                   	push   %ebx
  800aa4:	89 c6                	mov    %eax,%esi
  sys_sem_wait(socksem);
  800aa6:	83 ec 0c             	sub    $0xc,%esp
  800aa9:	ff 35 44 50 81 00    	pushl  0x815044
  800aaf:	e8 0d 46 00 00       	call   8050c1 <sys_sem_wait>
  800ab4:	b8 60 50 81 00       	mov    $0x815060,%eax
  800ab9:	83 c4 10             	add    $0x10,%esp
  for (i = 0; i < NUM_SOCKETS; ++i) {
  800abc:	bb 00 00 00 00       	mov    $0x0,%ebx
    if (!sockets[i].conn) {
  800ac1:	83 38 00             	cmpl   $0x0,(%eax)
  800ac4:	74 23                	je     800ae9 <alloc_socket+0x4a>
  for (i = 0; i < NUM_SOCKETS; ++i) {
  800ac6:	83 c3 01             	add    $0x1,%ebx
  800ac9:	83 c0 14             	add    $0x14,%eax
  800acc:	83 fb 20             	cmp    $0x20,%ebx
  800acf:	75 f0                	jne    800ac1 <alloc_socket+0x22>
  sys_sem_signal(socksem);
  800ad1:	83 ec 0c             	sub    $0xc,%esp
  800ad4:	ff 35 44 50 81 00    	pushl  0x815044
  800ada:	e8 7f 95 00 00       	call   80a05e <sys_sem_signal>
  return -1;
  800adf:	83 c4 10             	add    $0x10,%esp
  800ae2:	bb ff ff ff ff       	mov    $0xffffffff,%ebx
  800ae7:	eb 55                	jmp    800b3e <alloc_socket+0x9f>
      sockets[i].conn       = newconn;
  800ae9:	8d 14 9b             	lea    (%ebx,%ebx,4),%edx
  800aec:	c1 e2 02             	shl    $0x2,%edx
  800aef:	89 b2 60 50 81 00    	mov    %esi,0x815060(%edx)
      sockets[i].lastdata   = NULL;
  800af5:	c7 82 64 50 81 00 00 	movl   $0x0,0x815064(%edx)
  800afc:	00 00 00 
      sockets[i].lastoffset = 0;
  800aff:	66 c7 82 68 50 81 00 	movw   $0x0,0x815068(%edx)
  800b06:	00 00 
      sockets[i].rcvevent   = 0;
  800b08:	66 c7 82 6a 50 81 00 	movw   $0x0,0x81506a(%edx)
  800b0f:	00 00 
      sockets[i].sendevent  = 1; /* TCP send buf is empty */
  800b11:	66 c7 82 6c 50 81 00 	movw   $0x1,0x81506c(%edx)
  800b18:	01 00 
      sockets[i].flags      = 0;
  800b1a:	66 c7 82 6e 50 81 00 	movw   $0x0,0x81506e(%edx)
  800b21:	00 00 
      sockets[i].err        = 0;
  800b23:	c7 82 70 50 81 00 00 	movl   $0x0,0x815070(%edx)
  800b2a:	00 00 00 
      sys_sem_signal(socksem);
  800b2d:	83 ec 0c             	sub    $0xc,%esp
  800b30:	ff 35 44 50 81 00    	pushl  0x815044
  800b36:	e8 23 95 00 00       	call   80a05e <sys_sem_signal>
      return i;
  800b3b:	83 c4 10             	add    $0x10,%esp
}
  800b3e:	89 d8                	mov    %ebx,%eax
  800b40:	8d 65 f8             	lea    -0x8(%ebp),%esp
  800b43:	5b                   	pop    %ebx
  800b44:	5e                   	pop    %esi
  800b45:	5d                   	pop    %ebp
  800b46:	c3                   	ret    

00800b47 <lwip_getsockopt_internal>:
  return err ? -1 : 0;
}

static void
lwip_getsockopt_internal(void *arg)
{
  800b47:	55                   	push   %ebp
  800b48:	89 e5                	mov    %esp,%ebp
  800b4a:	53                   	push   %ebx
  800b4b:	83 ec 04             	sub    $0x4,%esp
  800b4e:	8b 45 08             	mov    0x8(%ebp),%eax
#endif /* LWIP_DEBUG */
  int level, optname;
  void *optval;
  struct lwip_setgetsockopt_data *data;

  LWIP_ASSERT("arg != NULL", arg != NULL);
  800b51:	85 c0                	test   %eax,%eax
  800b53:	74 39                	je     800b8e <lwip_getsockopt_internal+0x47>

  data = (struct lwip_setgetsockopt_data*)arg;
  sock = data->sock;
  800b55:	8b 18                	mov    (%eax),%ebx
#ifdef LWIP_DEBUG
  s = data->s;
#endif /* LWIP_DEBUG */
  level = data->level;
  800b57:	8b 50 08             	mov    0x8(%eax),%edx
  optname = data->optname;
  800b5a:	8b 48 0c             	mov    0xc(%eax),%ecx
  optval = data->optval;
  800b5d:	8b 40 10             	mov    0x10(%eax),%eax

  switch (level) {
  800b60:	83 fa 06             	cmp    $0x6,%edx
  800b63:	0f 84 37 01 00 00    	je     800ca0 <lwip_getsockopt_internal+0x159>
  800b69:	81 fa ff 0f 00 00    	cmp    $0xfff,%edx
  800b6f:	74 34                	je     800ba5 <lwip_getsockopt_internal+0x5e>
  800b71:	85 d2                	test   %edx,%edx
  800b73:	0f 84 f9 00 00 00    	je     800c72 <lwip_getsockopt_internal+0x12b>
      break;
    }  /* switch (optname) */
    break;
#endif /* LWIP_UDP */
  } /* switch (level) */
  sys_sem_signal(sock->conn->op_completed);
  800b79:	83 ec 0c             	sub    $0xc,%esp
  800b7c:	8b 03                	mov    (%ebx),%eax
  800b7e:	ff 70 10             	pushl  0x10(%eax)
  800b81:	e8 d8 94 00 00       	call   80a05e <sys_sem_signal>
}
  800b86:	83 c4 10             	add    $0x10,%esp
  800b89:	8b 5d fc             	mov    -0x4(%ebp),%ebx
  800b8c:	c9                   	leave  
  800b8d:	c3                   	ret    
  LWIP_ASSERT("arg != NULL", arg != NULL);
  800b8e:	83 ec 04             	sub    $0x4,%esp
  800b91:	68 c7 10 81 00       	push   $0x8110c7
  800b96:	68 38 05 00 00       	push   $0x538
  800b9b:	68 b0 10 81 00       	push   $0x8110b0
  800ba0:	e8 cb d9 00 00       	call   80e570 <_panic>
  800ba5:	83 f9 20             	cmp    $0x20,%ecx
  800ba8:	74 65                	je     800c0f <lwip_getsockopt_internal+0xc8>
  800baa:	7e 55                	jle    800c01 <lwip_getsockopt_internal+0xba>
  800bac:	81 f9 08 10 00 00    	cmp    $0x1008,%ecx
  800bb2:	74 6d                	je     800c21 <lwip_getsockopt_internal+0xda>
  800bb4:	81 f9 0a 10 00 00    	cmp    $0x100a,%ecx
  800bba:	0f 84 9f 00 00 00    	je     800c5f <lwip_getsockopt_internal+0x118>
  800bc0:	81 f9 07 10 00 00    	cmp    $0x1007,%ecx
  800bc6:	75 b1                	jne    800b79 <lwip_getsockopt_internal+0x32>
      if (sock->err == 0) {
  800bc8:	83 7b 10 00          	cmpl   $0x0,0x10(%ebx)
  800bcc:	75 22                	jne    800bf0 <lwip_getsockopt_internal+0xa9>
        sock_set_errno(sock, err_to_errno(sock->conn->err));
  800bce:	8b 13                	mov    (%ebx),%edx
  800bd0:	0f be 52 0c          	movsbl 0xc(%edx),%edx
  800bd4:	f7 da                	neg    %edx
  800bd6:	b9 05 00 00 00       	mov    $0x5,%ecx
  800bdb:	83 fa 0e             	cmp    $0xe,%edx
  800bde:	77 07                	ja     800be7 <lwip_getsockopt_internal+0xa0>
  800be0:	8b 0c 95 80 11 81 00 	mov    0x811180(,%edx,4),%ecx
  800be7:	89 4b 10             	mov    %ecx,0x10(%ebx)
  800bea:	89 0d e0 b1 b3 00    	mov    %ecx,0xb3b1e0
      *(int *)optval = sock->err;
  800bf0:	8b 53 10             	mov    0x10(%ebx),%edx
  800bf3:	89 10                	mov    %edx,(%eax)
      sock->err = 0;
  800bf5:	c7 43 10 00 00 00 00 	movl   $0x0,0x10(%ebx)
      break;
  800bfc:	e9 78 ff ff ff       	jmp    800b79 <lwip_getsockopt_internal+0x32>
  800c01:	83 f9 02             	cmp    $0x2,%ecx
  800c04:	74 09                	je     800c0f <lwip_getsockopt_internal+0xc8>
  800c06:	83 f9 08             	cmp    $0x8,%ecx
  800c09:	0f 85 6a ff ff ff    	jne    800b79 <lwip_getsockopt_internal+0x32>
      *(int*)optval = sock->conn->pcb.ip->so_options & optname;
  800c0f:	8b 13                	mov    (%ebx),%edx
  800c11:	8b 52 08             	mov    0x8(%edx),%edx
  800c14:	0f b7 52 08          	movzwl 0x8(%edx),%edx
  800c18:	21 d1                	and    %edx,%ecx
  800c1a:	89 08                	mov    %ecx,(%eax)
      break;
  800c1c:	e9 58 ff ff ff       	jmp    800b79 <lwip_getsockopt_internal+0x32>
      switch (NETCONNTYPE_GROUP(sock->conn->type)) {
  800c21:	8b 13                	mov    (%ebx),%edx
  800c23:	8b 12                	mov    (%edx),%edx
  800c25:	89 d1                	mov    %edx,%ecx
  800c27:	81 e1 f0 00 00 00    	and    $0xf0,%ecx
  800c2d:	83 f9 20             	cmp    $0x20,%ecx
  800c30:	74 22                	je     800c54 <lwip_getsockopt_internal+0x10d>
  800c32:	83 f9 40             	cmp    $0x40,%ecx
  800c35:	74 12                	je     800c49 <lwip_getsockopt_internal+0x102>
        *(int*)optval = sock->conn->type;
  800c37:	83 f9 10             	cmp    $0x10,%ecx
  800c3a:	b9 01 00 00 00       	mov    $0x1,%ecx
  800c3f:	0f 44 d1             	cmove  %ecx,%edx
  800c42:	89 10                	mov    %edx,(%eax)
  800c44:	e9 30 ff ff ff       	jmp    800b79 <lwip_getsockopt_internal+0x32>
        *(int*)optval = SOCK_RAW;
  800c49:	c7 00 03 00 00 00    	movl   $0x3,(%eax)
        break;
  800c4f:	e9 25 ff ff ff       	jmp    800b79 <lwip_getsockopt_internal+0x32>
        *(int*)optval = SOCK_DGRAM;
  800c54:	c7 00 02 00 00 00    	movl   $0x2,(%eax)
        break;
  800c5a:	e9 1a ff ff ff       	jmp    800b79 <lwip_getsockopt_internal+0x32>
      *(int*)optval = (udp_flags(sock->conn->pcb.udp) & UDP_FLAGS_NOCHKSUM) ? 1 : 0;
  800c5f:	8b 13                	mov    (%ebx),%edx
  800c61:	8b 52 08             	mov    0x8(%edx),%edx
  800c64:	0f b6 52 10          	movzbl 0x10(%edx),%edx
  800c68:	83 e2 01             	and    $0x1,%edx
  800c6b:	89 10                	mov    %edx,(%eax)
      break;
  800c6d:	e9 07 ff ff ff       	jmp    800b79 <lwip_getsockopt_internal+0x32>
  800c72:	83 f9 01             	cmp    $0x1,%ecx
  800c75:	74 19                	je     800c90 <lwip_getsockopt_internal+0x149>
  800c77:	83 f9 02             	cmp    $0x2,%ecx
  800c7a:	0f 85 f9 fe ff ff    	jne    800b79 <lwip_getsockopt_internal+0x32>
      *(int*)optval = sock->conn->pcb.ip->ttl;
  800c80:	8b 13                	mov    (%ebx),%edx
  800c82:	8b 52 08             	mov    0x8(%edx),%edx
  800c85:	0f b6 52 0b          	movzbl 0xb(%edx),%edx
  800c89:	89 10                	mov    %edx,(%eax)
      break;
  800c8b:	e9 e9 fe ff ff       	jmp    800b79 <lwip_getsockopt_internal+0x32>
      *(int*)optval = sock->conn->pcb.ip->tos;
  800c90:	8b 13                	mov    (%ebx),%edx
  800c92:	8b 52 08             	mov    0x8(%edx),%edx
  800c95:	0f b6 52 0a          	movzbl 0xa(%edx),%edx
  800c99:	89 10                	mov    %edx,(%eax)
      break;
  800c9b:	e9 d9 fe ff ff       	jmp    800b79 <lwip_getsockopt_internal+0x32>
  800ca0:	83 f9 01             	cmp    $0x1,%ecx
  800ca3:	74 1b                	je     800cc0 <lwip_getsockopt_internal+0x179>
  800ca5:	83 f9 02             	cmp    $0x2,%ecx
  800ca8:	0f 85 cb fe ff ff    	jne    800b79 <lwip_getsockopt_internal+0x32>
      *(int*)optval = (int)sock->conn->pcb.tcp->keep_idle;
  800cae:	8b 13                	mov    (%ebx),%edx
  800cb0:	8b 52 08             	mov    0x8(%edx),%edx
  800cb3:	8b 92 9c 00 00 00    	mov    0x9c(%edx),%edx
  800cb9:	89 10                	mov    %edx,(%eax)
      break;
  800cbb:	e9 b9 fe ff ff       	jmp    800b79 <lwip_getsockopt_internal+0x32>
      *(int*)optval = (sock->conn->pcb.tcp->flags & TF_NODELAY);
  800cc0:	8b 13                	mov    (%ebx),%edx
  800cc2:	8b 52 08             	mov    0x8(%edx),%edx
  800cc5:	0f b6 52 20          	movzbl 0x20(%edx),%edx
  800cc9:	83 e2 40             	and    $0x40,%edx
  800ccc:	0f b6 d2             	movzbl %dl,%edx
  800ccf:	89 10                	mov    %edx,(%eax)
      break;
  800cd1:	e9 a3 fe ff ff       	jmp    800b79 <lwip_getsockopt_internal+0x32>

00800cd6 <lwip_setsockopt_internal>:
  return err ? -1 : 0;
}

static void
lwip_setsockopt_internal(void *arg)
{
  800cd6:	55                   	push   %ebp
  800cd7:	89 e5                	mov    %esp,%ebp
  800cd9:	53                   	push   %ebx
  800cda:	83 ec 04             	sub    $0x4,%esp
  800cdd:	8b 45 08             	mov    0x8(%ebp),%eax
#endif /* LWIP_DEBUG */
  int level, optname;
  const void *optval;
  struct lwip_setgetsockopt_data *data;

  LWIP_ASSERT("arg != NULL", arg != NULL);
  800ce0:	85 c0                	test   %eax,%eax
  800ce2:	74 35                	je     800d19 <lwip_setsockopt_internal+0x43>

  data = (struct lwip_setgetsockopt_data*)arg;
  sock = data->sock;
  800ce4:	8b 18                	mov    (%eax),%ebx
#ifdef LWIP_DEBUG
  s = data->s;
#endif /* LWIP_DEBUG */
  level = data->level;
  800ce6:	8b 50 08             	mov    0x8(%eax),%edx
  optname = data->optname;
  800ce9:	8b 48 0c             	mov    0xc(%eax),%ecx
  optval = data->optval;
  800cec:	8b 40 10             	mov    0x10(%eax),%eax

  switch (level) {
  800cef:	83 fa 06             	cmp    $0x6,%edx
  800cf2:	0f 84 aa 00 00 00    	je     800da2 <lwip_setsockopt_internal+0xcc>
  800cf8:	81 fa ff 0f 00 00    	cmp    $0xfff,%edx
  800cfe:	74 30                	je     800d30 <lwip_setsockopt_internal+0x5a>
  800d00:	85 d2                	test   %edx,%edx
  800d02:	74 76                	je     800d7a <lwip_setsockopt_internal+0xa4>
      break;
    }  /* switch (optname) */
    break;
#endif /* LWIP_UDP */
  }  /* switch (level) */
  sys_sem_signal(sock->conn->op_completed);
  800d04:	83 ec 0c             	sub    $0xc,%esp
  800d07:	8b 03                	mov    (%ebx),%eax
  800d09:	ff 70 10             	pushl  0x10(%eax)
  800d0c:	e8 4d 93 00 00       	call   80a05e <sys_sem_signal>
}
  800d11:	83 c4 10             	add    $0x10,%esp
  800d14:	8b 5d fc             	mov    -0x4(%ebp),%ebx
  800d17:	c9                   	leave  
  800d18:	c3                   	ret    
  LWIP_ASSERT("arg != NULL", arg != NULL);
  800d19:	83 ec 04             	sub    $0x4,%esp
  800d1c:	68 c7 10 81 00       	push   $0x8110c7
  800d21:	68 ae 06 00 00       	push   $0x6ae
  800d26:	68 b0 10 81 00       	push   $0x8110b0
  800d2b:	e8 40 d8 00 00       	call   80e570 <_panic>
  800d30:	83 f9 20             	cmp    $0x20,%ecx
  800d33:	74 0d                	je     800d42 <lwip_setsockopt_internal+0x6c>
  800d35:	81 f9 0a 10 00 00    	cmp    $0x100a,%ecx
  800d3b:	74 22                	je     800d5f <lwip_setsockopt_internal+0x89>
  800d3d:	83 f9 08             	cmp    $0x8,%ecx
  800d40:	75 c2                	jne    800d04 <lwip_setsockopt_internal+0x2e>
      if (*(int*)optval) {
  800d42:	83 38 00             	cmpl   $0x0,(%eax)
  800d45:	74 0b                	je     800d52 <lwip_setsockopt_internal+0x7c>
        sock->conn->pcb.ip->so_options |= optname;
  800d47:	8b 03                	mov    (%ebx),%eax
  800d49:	8b 40 08             	mov    0x8(%eax),%eax
  800d4c:	66 09 48 08          	or     %cx,0x8(%eax)
  800d50:	eb b2                	jmp    800d04 <lwip_setsockopt_internal+0x2e>
        sock->conn->pcb.ip->so_options &= ~optname;
  800d52:	8b 03                	mov    (%ebx),%eax
  800d54:	8b 40 08             	mov    0x8(%eax),%eax
  800d57:	f7 d1                	not    %ecx
  800d59:	66 21 48 08          	and    %cx,0x8(%eax)
  800d5d:	eb a5                	jmp    800d04 <lwip_setsockopt_internal+0x2e>
      if (*(int*)optval) {
  800d5f:	83 38 00             	cmpl   $0x0,(%eax)
  800d62:	74 0b                	je     800d6f <lwip_setsockopt_internal+0x99>
        udp_setflags(sock->conn->pcb.udp, udp_flags(sock->conn->pcb.udp) | UDP_FLAGS_NOCHKSUM);
  800d64:	8b 03                	mov    (%ebx),%eax
  800d66:	8b 40 08             	mov    0x8(%eax),%eax
  800d69:	80 48 10 01          	orb    $0x1,0x10(%eax)
  800d6d:	eb 95                	jmp    800d04 <lwip_setsockopt_internal+0x2e>
        udp_setflags(sock->conn->pcb.udp, udp_flags(sock->conn->pcb.udp) & ~UDP_FLAGS_NOCHKSUM);
  800d6f:	8b 03                	mov    (%ebx),%eax
  800d71:	8b 40 08             	mov    0x8(%eax),%eax
  800d74:	80 60 10 fe          	andb   $0xfe,0x10(%eax)
  800d78:	eb 8a                	jmp    800d04 <lwip_setsockopt_internal+0x2e>
  800d7a:	83 f9 01             	cmp    $0x1,%ecx
  800d7d:	74 14                	je     800d93 <lwip_setsockopt_internal+0xbd>
  800d7f:	83 f9 02             	cmp    $0x2,%ecx
  800d82:	75 80                	jne    800d04 <lwip_setsockopt_internal+0x2e>
      sock->conn->pcb.ip->ttl = (u8_t)(*(int*)optval);
  800d84:	8b 13                	mov    (%ebx),%edx
  800d86:	8b 52 08             	mov    0x8(%edx),%edx
  800d89:	8b 00                	mov    (%eax),%eax
  800d8b:	88 42 0b             	mov    %al,0xb(%edx)
      break;
  800d8e:	e9 71 ff ff ff       	jmp    800d04 <lwip_setsockopt_internal+0x2e>
      sock->conn->pcb.ip->tos = (u8_t)(*(int*)optval);
  800d93:	8b 13                	mov    (%ebx),%edx
  800d95:	8b 52 08             	mov    0x8(%edx),%edx
  800d98:	8b 00                	mov    (%eax),%eax
  800d9a:	88 42 0a             	mov    %al,0xa(%edx)
      break;
  800d9d:	e9 62 ff ff ff       	jmp    800d04 <lwip_setsockopt_internal+0x2e>
  800da2:	83 f9 01             	cmp    $0x1,%ecx
  800da5:	74 1b                	je     800dc2 <lwip_setsockopt_internal+0xec>
  800da7:	83 f9 02             	cmp    $0x2,%ecx
  800daa:	0f 85 54 ff ff ff    	jne    800d04 <lwip_setsockopt_internal+0x2e>
      sock->conn->pcb.tcp->keep_idle = (u32_t)(*(int*)optval);
  800db0:	8b 13                	mov    (%ebx),%edx
  800db2:	8b 52 08             	mov    0x8(%edx),%edx
  800db5:	8b 00                	mov    (%eax),%eax
  800db7:	89 82 9c 00 00 00    	mov    %eax,0x9c(%edx)
      break;
  800dbd:	e9 42 ff ff ff       	jmp    800d04 <lwip_setsockopt_internal+0x2e>
      if (*(int*)optval) {
  800dc2:	83 38 00             	cmpl   $0x0,(%eax)
  800dc5:	74 0e                	je     800dd5 <lwip_setsockopt_internal+0xff>
        sock->conn->pcb.tcp->flags |= TF_NODELAY;
  800dc7:	8b 03                	mov    (%ebx),%eax
  800dc9:	8b 40 08             	mov    0x8(%eax),%eax
  800dcc:	80 48 20 40          	orb    $0x40,0x20(%eax)
  800dd0:	e9 2f ff ff ff       	jmp    800d04 <lwip_setsockopt_internal+0x2e>
        sock->conn->pcb.tcp->flags &= ~TF_NODELAY;
  800dd5:	8b 03                	mov    (%ebx),%eax
  800dd7:	8b 40 08             	mov    0x8(%eax),%eax
  800dda:	80 60 20 bf          	andb   $0xbf,0x20(%eax)
  800dde:	e9 21 ff ff ff       	jmp    800d04 <lwip_setsockopt_internal+0x2e>

00800de3 <lwip_socket_init>:
{
  800de3:	55                   	push   %ebp
  800de4:	89 e5                	mov    %esp,%ebp
  800de6:	83 ec 14             	sub    $0x14,%esp
  socksem   = sys_sem_new(1);
  800de9:	6a 01                	push   $0x1
  800deb:	e8 b1 8f 00 00       	call   809da1 <sys_sem_new>
  800df0:	a3 44 50 81 00       	mov    %eax,0x815044
  selectsem = sys_sem_new(1);
  800df5:	c7 04 24 01 00 00 00 	movl   $0x1,(%esp)
  800dfc:	e8 a0 8f 00 00       	call   809da1 <sys_sem_new>
  800e01:	a3 40 50 81 00       	mov    %eax,0x815040
}
  800e06:	83 c4 10             	add    $0x10,%esp
  800e09:	c9                   	leave  
  800e0a:	c3                   	ret    

00800e0b <lwip_accept>:
{
  800e0b:	55                   	push   %ebp
  800e0c:	89 e5                	mov    %esp,%ebp
  800e0e:	57                   	push   %edi
  800e0f:	56                   	push   %esi
  800e10:	53                   	push   %ebx
  800e11:	83 ec 3c             	sub    $0x3c,%esp
  800e14:	8b 7d 10             	mov    0x10(%ebp),%edi
  sock = get_socket(s);
  800e17:	8b 45 08             	mov    0x8(%ebp),%eax
  800e1a:	e8 e6 f8 ff ff       	call   800705 <get_socket>
  if (!sock)
  800e1f:	85 c0                	test   %eax,%eax
  800e21:	0f 84 8c 01 00 00    	je     800fb3 <lwip_accept+0x1a8>
  800e27:	89 c6                	mov    %eax,%esi
  newconn = netconn_accept(sock->conn);
  800e29:	83 ec 0c             	sub    $0xc,%esp
  800e2c:	ff 30                	pushl  (%eax)
  800e2e:	e8 57 a0 00 00       	call   80ae8a <netconn_accept>
  800e33:	89 c3                	mov    %eax,%ebx
  if (!newconn) {
  800e35:	83 c4 10             	add    $0x10,%esp
  800e38:	85 c0                	test   %eax,%eax
  800e3a:	0f 84 de 00 00 00    	je     800f1e <lwip_accept+0x113>
  err = netconn_peer(newconn, &naddr, &port);
  800e40:	6a 00                	push   $0x0
  800e42:	8d 45 e2             	lea    -0x1e(%ebp),%eax
  800e45:	50                   	push   %eax
  800e46:	8d 45 e4             	lea    -0x1c(%ebp),%eax
  800e49:	50                   	push   %eax
  800e4a:	53                   	push   %ebx
  800e4b:	e8 84 9e 00 00       	call   80acd4 <netconn_getaddr>
  800e50:	88 45 c7             	mov    %al,-0x39(%ebp)
  if (err != ERR_OK) {
  800e53:	83 c4 10             	add    $0x10,%esp
  800e56:	84 c0                	test   %al,%al
  800e58:	0f 85 e9 00 00 00    	jne    800f47 <lwip_accept+0x13c>
  memset(&sin, 0, sizeof(sin));
  800e5e:	83 ec 04             	sub    $0x4,%esp
  800e61:	6a 10                	push   $0x10
  800e63:	6a 00                	push   $0x0
  800e65:	8d 45 d0             	lea    -0x30(%ebp),%eax
  800e68:	50                   	push   %eax
  800e69:	e8 ff de 00 00       	call   80ed6d <memset>
  sin.sin_len = sizeof(sin);
  800e6e:	c6 45 d0 10          	movb   $0x10,-0x30(%ebp)
  sin.sin_family = AF_INET;
  800e72:	c6 45 d1 02          	movb   $0x2,-0x2f(%ebp)
  sin.sin_port = htons(port);
  800e76:	0f b7 45 e2          	movzwl -0x1e(%ebp),%eax
  800e7a:	89 04 24             	mov    %eax,(%esp)
  800e7d:	e8 43 68 00 00       	call   8076c5 <htons>
  800e82:	66 89 45 d2          	mov    %ax,-0x2e(%ebp)
  sin.sin_addr.s_addr = naddr.addr;
  800e86:	8b 45 e4             	mov    -0x1c(%ebp),%eax
  800e89:	89 45 d4             	mov    %eax,-0x2c(%ebp)
  if (*addrlen > sizeof(sin))
  800e8c:	83 c4 10             	add    $0x10,%esp
  800e8f:	83 3f 10             	cmpl   $0x10,(%edi)
  800e92:	76 06                	jbe    800e9a <lwip_accept+0x8f>
    *addrlen = sizeof(sin);
  800e94:	c7 07 10 00 00 00    	movl   $0x10,(%edi)
  SMEMCPY(addr, &sin, *addrlen);
  800e9a:	83 ec 04             	sub    $0x4,%esp
  800e9d:	ff 37                	pushl  (%edi)
  800e9f:	8d 45 d0             	lea    -0x30(%ebp),%eax
  800ea2:	50                   	push   %eax
  800ea3:	ff 75 0c             	pushl  0xc(%ebp)
  800ea6:	e8 6c df 00 00       	call   80ee17 <memcpy>
  newsock = alloc_socket(newconn);
  800eab:	89 d8                	mov    %ebx,%eax
  800ead:	e8 ed fb ff ff       	call   800a9f <alloc_socket>
  800eb2:	89 c7                	mov    %eax,%edi
  if (newsock == -1) {
  800eb4:	83 c4 10             	add    $0x10,%esp
  800eb7:	83 f8 ff             	cmp    $0xffffffff,%eax
  800eba:	0f 84 ba 00 00 00    	je     800f7a <lwip_accept+0x16f>
  LWIP_ASSERT("invalid socket index", (newsock >= 0) && (newsock < NUM_SOCKETS));
  800ec0:	83 f8 1f             	cmp    $0x1f,%eax
  800ec3:	0f 87 d3 00 00 00    	ja     800f9c <lwip_accept+0x191>
  newconn->callback = event_callback;
  800ec9:	c7 43 2c f5 08 80 00 	movl   $0x8008f5,0x2c(%ebx)
  sys_sem_wait(socksem);
  800ed0:	83 ec 0c             	sub    $0xc,%esp
  800ed3:	ff 35 44 50 81 00    	pushl  0x815044
  800ed9:	e8 e3 41 00 00       	call   8050c1 <sys_sem_wait>
  nsock->rcvevent += -1 - newconn->socket;
  800ede:	8d 04 bf             	lea    (%edi,%edi,4),%eax
  800ee1:	0f b7 53 1c          	movzwl 0x1c(%ebx),%edx
  800ee5:	f7 d2                	not    %edx
  800ee7:	66 01 14 85 6a 50 81 	add    %dx,0x81506a(,%eax,4)
  800eee:	00 
  newconn->socket = newsock;
  800eef:	89 7b 1c             	mov    %edi,0x1c(%ebx)
  sys_sem_signal(socksem);
  800ef2:	83 c4 04             	add    $0x4,%esp
  800ef5:	ff 35 44 50 81 00    	pushl  0x815044
  800efb:	e8 5e 91 00 00       	call   80a05e <sys_sem_signal>
  sock_set_errno(sock, 0);
  800f00:	c7 46 10 00 00 00 00 	movl   $0x0,0x10(%esi)
  800f07:	c7 05 e0 b1 b3 00 00 	movl   $0x0,0xb3b1e0
  800f0e:	00 00 00 
  return newsock;
  800f11:	83 c4 10             	add    $0x10,%esp
}
  800f14:	89 f8                	mov    %edi,%eax
  800f16:	8d 65 f4             	lea    -0xc(%ebp),%esp
  800f19:	5b                   	pop    %ebx
  800f1a:	5e                   	pop    %esi
  800f1b:	5f                   	pop    %edi
  800f1c:	5d                   	pop    %ebp
  800f1d:	c3                   	ret    
    sock_set_errno(sock, err_to_errno(sock->conn->err));
  800f1e:	8b 06                	mov    (%esi),%eax
  800f20:	0f be 40 0c          	movsbl 0xc(%eax),%eax
  800f24:	f7 d8                	neg    %eax
  800f26:	ba 05 00 00 00       	mov    $0x5,%edx
  800f2b:	83 f8 0e             	cmp    $0xe,%eax
  800f2e:	77 07                	ja     800f37 <lwip_accept+0x12c>
  800f30:	8b 14 85 80 11 81 00 	mov    0x811180(,%eax,4),%edx
  800f37:	89 56 10             	mov    %edx,0x10(%esi)
  800f3a:	89 15 e0 b1 b3 00    	mov    %edx,0xb3b1e0
    return -1;
  800f40:	bf ff ff ff ff       	mov    $0xffffffff,%edi
  800f45:	eb cd                	jmp    800f14 <lwip_accept+0x109>
    netconn_delete(newconn);
  800f47:	83 ec 0c             	sub    $0xc,%esp
  800f4a:	53                   	push   %ebx
  800f4b:	e8 1c 9d 00 00       	call   80ac6c <netconn_delete>
    sock_set_errno(sock, err_to_errno(err));
  800f50:	0f be 45 c7          	movsbl -0x39(%ebp),%eax
  800f54:	f7 d8                	neg    %eax
  800f56:	83 c4 10             	add    $0x10,%esp
  800f59:	ba 05 00 00 00       	mov    $0x5,%edx
  800f5e:	83 f8 0e             	cmp    $0xe,%eax
  800f61:	77 07                	ja     800f6a <lwip_accept+0x15f>
  800f63:	8b 14 85 80 11 81 00 	mov    0x811180(,%eax,4),%edx
  800f6a:	89 56 10             	mov    %edx,0x10(%esi)
  800f6d:	89 15 e0 b1 b3 00    	mov    %edx,0xb3b1e0
    return -1;
  800f73:	bf ff ff ff ff       	mov    $0xffffffff,%edi
  800f78:	eb 9a                	jmp    800f14 <lwip_accept+0x109>
    netconn_delete(newconn);
  800f7a:	83 ec 0c             	sub    $0xc,%esp
  800f7d:	53                   	push   %ebx
  800f7e:	e8 e9 9c 00 00       	call   80ac6c <netconn_delete>
    sock_set_errno(sock, ENFILE);
  800f83:	c7 46 10 17 00 00 00 	movl   $0x17,0x10(%esi)
  800f8a:	c7 05 e0 b1 b3 00 17 	movl   $0x17,0xb3b1e0
  800f91:	00 00 00 
    return -1;
  800f94:	83 c4 10             	add    $0x10,%esp
  800f97:	e9 78 ff ff ff       	jmp    800f14 <lwip_accept+0x109>
  LWIP_ASSERT("invalid socket index", (newsock >= 0) && (newsock < NUM_SOCKETS));
  800f9c:	83 ec 04             	sub    $0x4,%esp
  800f9f:	68 d3 10 81 00       	push   $0x8110d3
  800fa4:	68 25 01 00 00       	push   $0x125
  800fa9:	68 b0 10 81 00       	push   $0x8110b0
  800fae:	e8 bd d5 00 00       	call   80e570 <_panic>
    return -1;
  800fb3:	bf ff ff ff ff       	mov    $0xffffffff,%edi
  800fb8:	e9 57 ff ff ff       	jmp    800f14 <lwip_accept+0x109>

00800fbd <lwip_bind>:
{
  800fbd:	55                   	push   %ebp
  800fbe:	89 e5                	mov    %esp,%ebp
  800fc0:	56                   	push   %esi
  800fc1:	53                   	push   %ebx
  800fc2:	83 ec 10             	sub    $0x10,%esp
  800fc5:	8b 75 0c             	mov    0xc(%ebp),%esi
  sock = get_socket(s);
  800fc8:	8b 45 08             	mov    0x8(%ebp),%eax
  800fcb:	e8 35 f7 ff ff       	call   800705 <get_socket>
  if (!sock)
  800fd0:	85 c0                	test   %eax,%eax
  800fd2:	0f 84 94 00 00 00    	je     80106c <lwip_bind+0xaf>
  800fd8:	89 c3                	mov    %eax,%ebx
  LWIP_ERROR("lwip_bind: invalid address", ((namelen == sizeof(struct sockaddr_in)) &&
  800fda:	83 7d 10 10          	cmpl   $0x10,0x10(%ebp)
  800fde:	75 4f                	jne    80102f <lwip_bind+0x72>
  800fe0:	80 7e 01 02          	cmpb   $0x2,0x1(%esi)
  800fe4:	75 49                	jne    80102f <lwip_bind+0x72>
  local_addr.addr = ((struct sockaddr_in *)name)->sin_addr.s_addr;
  800fe6:	8b 46 04             	mov    0x4(%esi),%eax
  800fe9:	89 45 f4             	mov    %eax,-0xc(%ebp)
  err = netconn_bind(sock->conn, &local_addr, ntohs(local_port));
  800fec:	83 ec 0c             	sub    $0xc,%esp
  800fef:	0f b7 46 02          	movzwl 0x2(%esi),%eax
  800ff3:	50                   	push   %eax
  800ff4:	e8 d9 66 00 00       	call   8076d2 <ntohs>
  800ff9:	83 c4 0c             	add    $0xc,%esp
  800ffc:	0f b7 c0             	movzwl %ax,%eax
  800fff:	50                   	push   %eax
  801000:	8d 45 f4             	lea    -0xc(%ebp),%eax
  801003:	50                   	push   %eax
  801004:	ff 33                	pushl  (%ebx)
  801006:	e8 55 9d 00 00       	call   80ad60 <netconn_bind>
  if (err != ERR_OK) {
  80100b:	83 c4 10             	add    $0x10,%esp
  80100e:	84 c0                	test   %al,%al
  801010:	75 34                	jne    801046 <lwip_bind+0x89>
  sock_set_errno(sock, 0);
  801012:	c7 43 10 00 00 00 00 	movl   $0x0,0x10(%ebx)
  801019:	c7 05 e0 b1 b3 00 00 	movl   $0x0,0xb3b1e0
  801020:	00 00 00 
  return 0;
  801023:	b8 00 00 00 00       	mov    $0x0,%eax
}
  801028:	8d 65 f8             	lea    -0x8(%ebp),%esp
  80102b:	5b                   	pop    %ebx
  80102c:	5e                   	pop    %esi
  80102d:	5d                   	pop    %ebp
  80102e:	c3                   	ret    
  LWIP_ERROR("lwip_bind: invalid address", ((namelen == sizeof(struct sockaddr_in)) &&
  80102f:	83 ec 04             	sub    $0x4,%esp
  801032:	68 e8 10 81 00       	push   $0x8110e8
  801037:	68 4a 01 00 00       	push   $0x14a
  80103c:	68 b0 10 81 00       	push   $0x8110b0
  801041:	e8 2a d5 00 00       	call   80e570 <_panic>
    sock_set_errno(sock, err_to_errno(err));
  801046:	0f be c0             	movsbl %al,%eax
  801049:	f7 d8                	neg    %eax
  80104b:	ba 05 00 00 00       	mov    $0x5,%edx
  801050:	83 f8 0e             	cmp    $0xe,%eax
  801053:	77 07                	ja     80105c <lwip_bind+0x9f>
  801055:	8b 14 85 80 11 81 00 	mov    0x811180(,%eax,4),%edx
  80105c:	89 53 10             	mov    %edx,0x10(%ebx)
  80105f:	89 15 e0 b1 b3 00    	mov    %edx,0xb3b1e0
    return -1;
  801065:	b8 ff ff ff ff       	mov    $0xffffffff,%eax
  80106a:	eb bc                	jmp    801028 <lwip_bind+0x6b>
    return -1;
  80106c:	b8 ff ff ff ff       	mov    $0xffffffff,%eax
  801071:	eb b5                	jmp    801028 <lwip_bind+0x6b>

00801073 <lwip_close>:
{
  801073:	55                   	push   %ebp
  801074:	89 e5                	mov    %esp,%ebp
  801076:	53                   	push   %ebx
  801077:	83 ec 04             	sub    $0x4,%esp
  sock = get_socket(s);
  80107a:	8b 45 08             	mov    0x8(%ebp),%eax
  80107d:	e8 83 f6 ff ff       	call   800705 <get_socket>
  if (!sock) {
  801082:	85 c0                	test   %eax,%eax
  801084:	74 6f                	je     8010f5 <lwip_close+0x82>
  801086:	89 c3                	mov    %eax,%ebx
  netconn_delete(sock->conn);
  801088:	83 ec 0c             	sub    $0xc,%esp
  80108b:	ff 30                	pushl  (%eax)
  80108d:	e8 da 9b 00 00       	call   80ac6c <netconn_delete>
  sys_sem_wait(socksem);
  801092:	83 c4 04             	add    $0x4,%esp
  801095:	ff 35 44 50 81 00    	pushl  0x815044
  80109b:	e8 21 40 00 00       	call   8050c1 <sys_sem_wait>
  if (sock->lastdata) {
  8010a0:	8b 43 04             	mov    0x4(%ebx),%eax
  8010a3:	83 c4 10             	add    $0x10,%esp
  8010a6:	85 c0                	test   %eax,%eax
  8010a8:	74 0c                	je     8010b6 <lwip_close+0x43>
    netbuf_delete(sock->lastdata);
  8010aa:	83 ec 0c             	sub    $0xc,%esp
  8010ad:	50                   	push   %eax
  8010ae:	e8 8f 13 00 00       	call   802442 <netbuf_delete>
  8010b3:	83 c4 10             	add    $0x10,%esp
  sock->lastdata   = NULL;
  8010b6:	c7 43 04 00 00 00 00 	movl   $0x0,0x4(%ebx)
  sock->lastoffset = 0;
  8010bd:	66 c7 43 08 00 00    	movw   $0x0,0x8(%ebx)
  sock->conn       = NULL;
  8010c3:	c7 03 00 00 00 00    	movl   $0x0,(%ebx)
  sock_set_errno(sock, 0);
  8010c9:	c7 43 10 00 00 00 00 	movl   $0x0,0x10(%ebx)
  8010d0:	c7 05 e0 b1 b3 00 00 	movl   $0x0,0xb3b1e0
  8010d7:	00 00 00 
  sys_sem_signal(socksem);
  8010da:	83 ec 0c             	sub    $0xc,%esp
  8010dd:	ff 35 44 50 81 00    	pushl  0x815044
  8010e3:	e8 76 8f 00 00       	call   80a05e <sys_sem_signal>
  return 0;
  8010e8:	83 c4 10             	add    $0x10,%esp
  8010eb:	b8 00 00 00 00       	mov    $0x0,%eax
}
  8010f0:	8b 5d fc             	mov    -0x4(%ebp),%ebx
  8010f3:	c9                   	leave  
  8010f4:	c3                   	ret    
    return -1;
  8010f5:	b8 ff ff ff ff       	mov    $0xffffffff,%eax
  8010fa:	eb f4                	jmp    8010f0 <lwip_close+0x7d>

008010fc <lwip_connect>:
{
  8010fc:	55                   	push   %ebp
  8010fd:	89 e5                	mov    %esp,%ebp
  8010ff:	56                   	push   %esi
  801100:	53                   	push   %ebx
  801101:	83 ec 10             	sub    $0x10,%esp
  801104:	8b 75 0c             	mov    0xc(%ebp),%esi
  sock = get_socket(s);
  801107:	8b 45 08             	mov    0x8(%ebp),%eax
  80110a:	e8 f6 f5 ff ff       	call   800705 <get_socket>
  if (!sock)
  80110f:	85 c0                	test   %eax,%eax
  801111:	0f 84 94 00 00 00    	je     8011ab <lwip_connect+0xaf>
  801117:	89 c3                	mov    %eax,%ebx
  LWIP_ERROR("lwip_connect: invalid address", ((namelen == sizeof(struct sockaddr_in)) &&
  801119:	83 7d 10 10          	cmpl   $0x10,0x10(%ebp)
  80111d:	75 4f                	jne    80116e <lwip_connect+0x72>
  80111f:	80 7e 01 02          	cmpb   $0x2,0x1(%esi)
  801123:	75 49                	jne    80116e <lwip_connect+0x72>
    remote_addr.addr = ((struct sockaddr_in *)name)->sin_addr.s_addr;
  801125:	8b 46 04             	mov    0x4(%esi),%eax
  801128:	89 45 f4             	mov    %eax,-0xc(%ebp)
    err = netconn_connect(sock->conn, &remote_addr, ntohs(remote_port));
  80112b:	83 ec 0c             	sub    $0xc,%esp
  80112e:	0f b7 46 02          	movzwl 0x2(%esi),%eax
  801132:	50                   	push   %eax
  801133:	e8 9a 65 00 00       	call   8076d2 <ntohs>
  801138:	83 c4 0c             	add    $0xc,%esp
  80113b:	0f b7 c0             	movzwl %ax,%eax
  80113e:	50                   	push   %eax
  80113f:	8d 45 f4             	lea    -0xc(%ebp),%eax
  801142:	50                   	push   %eax
  801143:	ff 33                	pushl  (%ebx)
  801145:	e8 67 9c 00 00       	call   80adb1 <netconn_connect>
  if (err != ERR_OK) {
  80114a:	83 c4 10             	add    $0x10,%esp
  80114d:	84 c0                	test   %al,%al
  80114f:	75 34                	jne    801185 <lwip_connect+0x89>
  sock_set_errno(sock, 0);
  801151:	c7 43 10 00 00 00 00 	movl   $0x0,0x10(%ebx)
  801158:	c7 05 e0 b1 b3 00 00 	movl   $0x0,0xb3b1e0
  80115f:	00 00 00 
  return 0;
  801162:	b8 00 00 00 00       	mov    $0x0,%eax
}
  801167:	8d 65 f8             	lea    -0x8(%ebp),%esp
  80116a:	5b                   	pop    %ebx
  80116b:	5e                   	pop    %esi
  80116c:	5d                   	pop    %ebp
  80116d:	c3                   	ret    
  LWIP_ERROR("lwip_connect: invalid address", ((namelen == sizeof(struct sockaddr_in)) &&
  80116e:	83 ec 04             	sub    $0x4,%esp
  801171:	68 03 11 81 00       	push   $0x811103
  801176:	68 86 01 00 00       	push   $0x186
  80117b:	68 b0 10 81 00       	push   $0x8110b0
  801180:	e8 eb d3 00 00       	call   80e570 <_panic>
    sock_set_errno(sock, err_to_errno(err));
  801185:	0f be c0             	movsbl %al,%eax
  801188:	f7 d8                	neg    %eax
  80118a:	ba 05 00 00 00       	mov    $0x5,%edx
  80118f:	83 f8 0e             	cmp    $0xe,%eax
  801192:	77 07                	ja     80119b <lwip_connect+0x9f>
  801194:	8b 14 85 80 11 81 00 	mov    0x811180(,%eax,4),%edx
  80119b:	89 53 10             	mov    %edx,0x10(%ebx)
  80119e:	89 15 e0 b1 b3 00    	mov    %edx,0xb3b1e0
    return -1;
  8011a4:	b8 ff ff ff ff       	mov    $0xffffffff,%eax
  8011a9:	eb bc                	jmp    801167 <lwip_connect+0x6b>
    return -1;
  8011ab:	b8 ff ff ff ff       	mov    $0xffffffff,%eax
  8011b0:	eb b5                	jmp    801167 <lwip_connect+0x6b>

008011b2 <lwip_listen>:
{
  8011b2:	55                   	push   %ebp
  8011b3:	89 e5                	mov    %esp,%ebp
  8011b5:	56                   	push   %esi
  8011b6:	53                   	push   %ebx
  8011b7:	8b 5d 0c             	mov    0xc(%ebp),%ebx
  sock = get_socket(s);
  8011ba:	8b 45 08             	mov    0x8(%ebp),%eax
  8011bd:	e8 43 f5 ff ff       	call   800705 <get_socket>
  if (!sock)
  8011c2:	85 c0                	test   %eax,%eax
  8011c4:	74 6f                	je     801235 <lwip_listen+0x83>
  8011c6:	89 c6                	mov    %eax,%esi
  8011c8:	81 fb ff 00 00 00    	cmp    $0xff,%ebx
  8011ce:	b8 ff 00 00 00       	mov    $0xff,%eax
  8011d3:	0f 4f d8             	cmovg  %eax,%ebx
  err = netconn_listen_with_backlog(sock->conn, backlog);
  8011d6:	83 ec 08             	sub    $0x8,%esp
  8011d9:	85 db                	test   %ebx,%ebx
  8011db:	b8 00 00 00 00       	mov    $0x0,%eax
  8011e0:	0f 48 d8             	cmovs  %eax,%ebx
  8011e3:	53                   	push   %ebx
  8011e4:	ff 36                	pushl  (%esi)
  8011e6:	e8 5b 9c 00 00       	call   80ae46 <netconn_listen_with_backlog>
  if (err != ERR_OK) {
  8011eb:	83 c4 10             	add    $0x10,%esp
  8011ee:	84 c0                	test   %al,%al
  8011f0:	75 1d                	jne    80120f <lwip_listen+0x5d>
  sock_set_errno(sock, 0);
  8011f2:	c7 46 10 00 00 00 00 	movl   $0x0,0x10(%esi)
  8011f9:	c7 05 e0 b1 b3 00 00 	movl   $0x0,0xb3b1e0
  801200:	00 00 00 
  return 0;
  801203:	b8 00 00 00 00       	mov    $0x0,%eax
}
  801208:	8d 65 f8             	lea    -0x8(%ebp),%esp
  80120b:	5b                   	pop    %ebx
  80120c:	5e                   	pop    %esi
  80120d:	5d                   	pop    %ebp
  80120e:	c3                   	ret    
    sock_set_errno(sock, err_to_errno(err));
  80120f:	0f be c0             	movsbl %al,%eax
  801212:	f7 d8                	neg    %eax
  801214:	ba 05 00 00 00       	mov    $0x5,%edx
  801219:	83 f8 0e             	cmp    $0xe,%eax
  80121c:	77 07                	ja     801225 <lwip_listen+0x73>
  80121e:	8b 14 85 80 11 81 00 	mov    0x811180(,%eax,4),%edx
  801225:	89 56 10             	mov    %edx,0x10(%esi)
  801228:	89 15 e0 b1 b3 00    	mov    %edx,0xb3b1e0
    return -1;
  80122e:	b8 ff ff ff ff       	mov    $0xffffffff,%eax
  801233:	eb d3                	jmp    801208 <lwip_listen+0x56>
    return -1;
  801235:	b8 ff ff ff ff       	mov    $0xffffffff,%eax
  80123a:	eb cc                	jmp    801208 <lwip_listen+0x56>

0080123c <lwip_recvfrom>:
{
  80123c:	55                   	push   %ebp
  80123d:	89 e5                	mov    %esp,%ebp
  80123f:	57                   	push   %edi
  801240:	56                   	push   %esi
  801241:	53                   	push   %ebx
  801242:	83 ec 3c             	sub    $0x3c,%esp
  sock = get_socket(s);
  801245:	8b 45 08             	mov    0x8(%ebp),%eax
  801248:	e8 b8 f4 ff ff       	call   800705 <get_socket>
  if (!sock)
  80124d:	85 c0                	test   %eax,%eax
  80124f:	0f 84 1c 02 00 00    	je     801471 <lwip_recvfrom+0x235>
  801255:	89 c7                	mov    %eax,%edi
  u16_t               buflen, copylen, off = 0;
  801257:	66 c7 45 c4 00 00    	movw   $0x0,-0x3c(%ebp)
      if (((flags & MSG_DONTWAIT) || (sock->flags & O_NONBLOCK)) && !sock->rcvevent) {
  80125d:	8b 45 14             	mov    0x14(%ebp),%eax
  801260:	83 e0 08             	and    $0x8,%eax
  801263:	89 45 b8             	mov    %eax,-0x48(%ebp)
  801266:	e9 a7 00 00 00       	jmp    801312 <lwip_recvfrom+0xd6>
  80126b:	83 7d b8 00          	cmpl   $0x0,-0x48(%ebp)
  80126f:	75 06                	jne    801277 <lwip_recvfrom+0x3b>
  801271:	f6 47 0f 08          	testb  $0x8,0xf(%edi)
  801275:	74 07                	je     80127e <lwip_recvfrom+0x42>
  801277:	66 83 7f 0a 00       	cmpw   $0x0,0xa(%edi)
  80127c:	74 56                	je     8012d4 <lwip_recvfrom+0x98>
      sock->lastdata = buf = netconn_recv(sock->conn);
  80127e:	83 ec 0c             	sub    $0xc,%esp
  801281:	ff 37                	pushl  (%edi)
  801283:	e8 74 9c 00 00       	call   80aefc <netconn_recv>
  801288:	89 c6                	mov    %eax,%esi
  80128a:	89 47 04             	mov    %eax,0x4(%edi)
      if (!buf) {
  80128d:	83 c4 10             	add    $0x10,%esp
  801290:	85 c0                	test   %eax,%eax
  801292:	0f 85 85 00 00 00    	jne    80131d <lwip_recvfrom+0xe1>
        sock_set_errno(sock, (((sock->conn->pcb.ip!=NULL) && (sock->conn->err==ERR_OK))?ETIMEDOUT:err_to_errno(sock->conn->err)));
  801298:	8b 17                	mov    (%edi),%edx
  80129a:	83 7a 08 00          	cmpl   $0x0,0x8(%edx)
  80129e:	74 0b                	je     8012ab <lwip_recvfrom+0x6f>
  8012a0:	b8 6e 00 00 00       	mov    $0x6e,%eax
  8012a5:	80 7a 0c 00          	cmpb   $0x0,0xc(%edx)
  8012a9:	74 17                	je     8012c2 <lwip_recvfrom+0x86>
  8012ab:	0f be 52 0c          	movsbl 0xc(%edx),%edx
  8012af:	f7 da                	neg    %edx
  8012b1:	b8 05 00 00 00       	mov    $0x5,%eax
  8012b6:	83 fa 0e             	cmp    $0xe,%edx
  8012b9:	77 07                	ja     8012c2 <lwip_recvfrom+0x86>
  8012bb:	8b 04 95 80 11 81 00 	mov    0x811180(,%edx,4),%eax
  8012c2:	89 47 10             	mov    %eax,0x10(%edi)
  8012c5:	a3 e0 b1 b3 00       	mov    %eax,0xb3b1e0
        return 0;
  8012ca:	b8 00 00 00 00       	mov    $0x0,%eax
  8012cf:	e9 05 01 00 00       	jmp    8013d9 <lwip_recvfrom+0x19d>
        sock_set_errno(sock, EWOULDBLOCK);
  8012d4:	c7 47 10 0b 00 00 00 	movl   $0xb,0x10(%edi)
  8012db:	c7 05 e0 b1 b3 00 0b 	movl   $0xb,0xb3b1e0
  8012e2:	00 00 00 
        return -1;
  8012e5:	b8 ff ff ff ff       	mov    $0xffffffff,%eax
  8012ea:	e9 ea 00 00 00       	jmp    8013d9 <lwip_recvfrom+0x19d>
        sock->lastdata = NULL;
  8012ef:	c7 47 04 00 00 00 00 	movl   $0x0,0x4(%edi)
        sock->lastoffset = 0;
  8012f6:	66 c7 47 08 00 00    	movw   $0x0,0x8(%edi)
        netbuf_delete(buf);
  8012fc:	83 ec 0c             	sub    $0xc,%esp
  8012ff:	56                   	push   %esi
  801300:	e8 3d 11 00 00       	call   802442 <netbuf_delete>
  801305:	83 c4 10             	add    $0x10,%esp
  } while (!done);
  801308:	80 7d c7 00          	cmpb   $0x0,-0x39(%ebp)
  80130c:	0f 85 a6 00 00 00    	jne    8013b8 <lwip_recvfrom+0x17c>
    if (sock->lastdata) {
  801312:	8b 77 04             	mov    0x4(%edi),%esi
  801315:	85 f6                	test   %esi,%esi
  801317:	0f 84 4e ff ff ff    	je     80126b <lwip_recvfrom+0x2f>
    buflen = netbuf_len(buf);
  80131d:	8b 16                	mov    (%esi),%edx
  80131f:	0f b7 4a 08          	movzwl 0x8(%edx),%ecx
    buflen -= sock->lastoffset;
  801323:	0f b7 47 08          	movzwl 0x8(%edi),%eax
  801327:	89 cb                	mov    %ecx,%ebx
  801329:	29 c3                	sub    %eax,%ebx
    if (len > buflen) {
  80132b:	0f b7 db             	movzwl %bx,%ebx
  80132e:	89 5d bc             	mov    %ebx,-0x44(%ebp)
      copylen = len;
  801331:	29 c1                	sub    %eax,%ecx
  801333:	3b 5d 10             	cmp    0x10(%ebp),%ebx
  801336:	66 0f 4d 4d 10       	cmovge 0x10(%ebp),%cx
  80133b:	89 cb                	mov    %ecx,%ebx
    netbuf_copy_partial(buf, (u8_t*)mem + off, copylen, sock->lastoffset);
  80133d:	0f b7 c9             	movzwl %cx,%ecx
  801340:	0f b7 c0             	movzwl %ax,%eax
  801343:	50                   	push   %eax
  801344:	89 4d c0             	mov    %ecx,-0x40(%ebp)
  801347:	51                   	push   %ecx
  801348:	0f b7 45 c4          	movzwl -0x3c(%ebp),%eax
  80134c:	03 45 0c             	add    0xc(%ebp),%eax
  80134f:	50                   	push   %eax
  801350:	52                   	push   %edx
  801351:	e8 09 3c 00 00       	call   804f5f <pbuf_copy_partial>
    off += copylen;
  801356:	66 01 5d c4          	add    %bx,-0x3c(%ebp)
    if (netconn_type(sock->conn) == NETCONN_TCP) {
  80135a:	83 c4 04             	add    $0x4,%esp
  80135d:	ff 37                	pushl  (%edi)
  80135f:	e8 48 99 00 00       	call   80acac <netconn_type>
  801364:	83 c4 10             	add    $0x10,%esp
      done = 1;
  801367:	c6 45 c7 01          	movb   $0x1,-0x39(%ebp)
    if (netconn_type(sock->conn) == NETCONN_TCP) {
  80136b:	83 f8 10             	cmp    $0x10,%eax
  80136e:	75 1d                	jne    80138d <lwip_recvfrom+0x151>
      len -= copylen;
  801370:	8b 4d c0             	mov    -0x40(%ebp),%ecx
  801373:	29 4d 10             	sub    %ecx,0x10(%ebp)
      if ( (len <= 0) || (buf->p->flags & PBUF_FLAG_PUSH) || !sock->rcvevent) {
  801376:	83 7d 10 00          	cmpl   $0x0,0x10(%ebp)
  80137a:	7e 11                	jle    80138d <lwip_recvfrom+0x151>
  80137c:	8b 06                	mov    (%esi),%eax
  80137e:	f6 40 0d 01          	testb  $0x1,0xd(%eax)
  801382:	75 09                	jne    80138d <lwip_recvfrom+0x151>
  801384:	66 83 7f 0a 00       	cmpw   $0x0,0xa(%edi)
  801389:	0f 94 45 c7          	sete   -0x39(%ebp)
    if ((flags & MSG_PEEK)==0) {
  80138d:	f6 45 14 01          	testb  $0x1,0x14(%ebp)
  801391:	75 25                	jne    8013b8 <lwip_recvfrom+0x17c>
      if ((sock->conn->type == NETCONN_TCP) && (buflen - copylen > 0)) {
  801393:	8b 07                	mov    (%edi),%eax
  801395:	83 38 10             	cmpl   $0x10,(%eax)
  801398:	0f 85 51 ff ff ff    	jne    8012ef <lwip_recvfrom+0xb3>
  80139e:	8b 45 bc             	mov    -0x44(%ebp),%eax
  8013a1:	2b 45 c0             	sub    -0x40(%ebp),%eax
  8013a4:	85 c0                	test   %eax,%eax
  8013a6:	0f 8e 43 ff ff ff    	jle    8012ef <lwip_recvfrom+0xb3>
        sock->lastdata = buf;
  8013ac:	89 77 04             	mov    %esi,0x4(%edi)
        sock->lastoffset += copylen;
  8013af:	66 01 5f 08          	add    %bx,0x8(%edi)
        LWIP_DEBUGF(SOCKETS_DEBUG, ("lwip_recvfrom: lastdata now netbuf=%p\n", (void*)buf));
  8013b3:	e9 50 ff ff ff       	jmp    801308 <lwip_recvfrom+0xcc>
  if (from && fromlen) {
  8013b8:	83 7d 18 00          	cmpl   $0x0,0x18(%ebp)
  8013bc:	74 06                	je     8013c4 <lwip_recvfrom+0x188>
  8013be:	83 7d 1c 00          	cmpl   $0x0,0x1c(%ebp)
  8013c2:	75 1d                	jne    8013e1 <lwip_recvfrom+0x1a5>
  sock_set_errno(sock, 0);
  8013c4:	c7 47 10 00 00 00 00 	movl   $0x0,0x10(%edi)
  8013cb:	c7 05 e0 b1 b3 00 00 	movl   $0x0,0xb3b1e0
  8013d2:	00 00 00 
  return off;
  8013d5:	0f b7 45 c4          	movzwl -0x3c(%ebp),%eax
}
  8013d9:	8d 65 f4             	lea    -0xc(%ebp),%esp
  8013dc:	5b                   	pop    %ebx
  8013dd:	5e                   	pop    %esi
  8013de:	5f                   	pop    %edi
  8013df:	5d                   	pop    %ebp
  8013e0:	c3                   	ret    
    if (netconn_type(sock->conn) == NETCONN_TCP) {
  8013e1:	83 ec 0c             	sub    $0xc,%esp
  8013e4:	ff 37                	pushl  (%edi)
  8013e6:	e8 c1 98 00 00       	call   80acac <netconn_type>
  8013eb:	83 c4 10             	add    $0x10,%esp
  8013ee:	83 f8 10             	cmp    $0x10,%eax
  8013f1:	74 65                	je     801458 <lwip_recvfrom+0x21c>
      addr = netbuf_fromaddr(buf);
  8013f3:	8b 5e 08             	mov    0x8(%esi),%ebx
      port = netbuf_fromport(buf);
  8013f6:	0f b7 46 0c          	movzwl 0xc(%esi),%eax
  8013fa:	66 89 45 e6          	mov    %ax,-0x1a(%ebp)
    memset(&sin, 0, sizeof(sin));
  8013fe:	83 ec 04             	sub    $0x4,%esp
  801401:	6a 10                	push   $0x10
  801403:	6a 00                	push   $0x0
  801405:	8d 45 d4             	lea    -0x2c(%ebp),%eax
  801408:	50                   	push   %eax
  801409:	e8 5f d9 00 00       	call   80ed6d <memset>
    sin.sin_len = sizeof(sin);
  80140e:	c6 45 d4 10          	movb   $0x10,-0x2c(%ebp)
    sin.sin_family = AF_INET;
  801412:	c6 45 d5 02          	movb   $0x2,-0x2b(%ebp)
    sin.sin_port = htons(port);
  801416:	0f b7 45 e6          	movzwl -0x1a(%ebp),%eax
  80141a:	89 04 24             	mov    %eax,(%esp)
  80141d:	e8 a3 62 00 00       	call   8076c5 <htons>
  801422:	66 89 45 d6          	mov    %ax,-0x2a(%ebp)
    sin.sin_addr.s_addr = addr->addr;
  801426:	8b 03                	mov    (%ebx),%eax
  801428:	89 45 d8             	mov    %eax,-0x28(%ebp)
    if (*fromlen > sizeof(sin))
  80142b:	83 c4 10             	add    $0x10,%esp
  80142e:	8b 45 1c             	mov    0x1c(%ebp),%eax
  801431:	83 38 10             	cmpl   $0x10,(%eax)
  801434:	76 06                	jbe    80143c <lwip_recvfrom+0x200>
      *fromlen = sizeof(sin);
  801436:	c7 00 10 00 00 00    	movl   $0x10,(%eax)
    SMEMCPY(from, &sin, *fromlen);
  80143c:	83 ec 04             	sub    $0x4,%esp
  80143f:	8b 45 1c             	mov    0x1c(%ebp),%eax
  801442:	ff 30                	pushl  (%eax)
  801444:	8d 45 d4             	lea    -0x2c(%ebp),%eax
  801447:	50                   	push   %eax
  801448:	ff 75 18             	pushl  0x18(%ebp)
  80144b:	e8 c7 d9 00 00       	call   80ee17 <memcpy>
  801450:	83 c4 10             	add    $0x10,%esp
  801453:	e9 6c ff ff ff       	jmp    8013c4 <lwip_recvfrom+0x188>
      netconn_getaddr(sock->conn, addr, &port, 0);
  801458:	6a 00                	push   $0x0
  80145a:	8d 45 e6             	lea    -0x1a(%ebp),%eax
  80145d:	50                   	push   %eax
  80145e:	8d 45 d8             	lea    -0x28(%ebp),%eax
  801461:	50                   	push   %eax
  801462:	ff 37                	pushl  (%edi)
  801464:	e8 6b 98 00 00       	call   80acd4 <netconn_getaddr>
  801469:	83 c4 10             	add    $0x10,%esp
      addr = (struct ip_addr*)&(sin.sin_addr.s_addr);
  80146c:	8d 5d d8             	lea    -0x28(%ebp),%ebx
  80146f:	eb 8d                	jmp    8013fe <lwip_recvfrom+0x1c2>
    return -1;
  801471:	b8 ff ff ff ff       	mov    $0xffffffff,%eax
  801476:	e9 5e ff ff ff       	jmp    8013d9 <lwip_recvfrom+0x19d>

0080147b <lwip_read>:
{
  80147b:	55                   	push   %ebp
  80147c:	89 e5                	mov    %esp,%ebp
  80147e:	83 ec 10             	sub    $0x10,%esp
  return lwip_recvfrom(s, mem, len, 0, NULL, NULL);
  801481:	6a 00                	push   $0x0
  801483:	6a 00                	push   $0x0
  801485:	6a 00                	push   $0x0
  801487:	ff 75 10             	pushl  0x10(%ebp)
  80148a:	ff 75 0c             	pushl  0xc(%ebp)
  80148d:	ff 75 08             	pushl  0x8(%ebp)
  801490:	e8 a7 fd ff ff       	call   80123c <lwip_recvfrom>
}
  801495:	c9                   	leave  
  801496:	c3                   	ret    

00801497 <lwip_recv>:
{
  801497:	55                   	push   %ebp
  801498:	89 e5                	mov    %esp,%ebp
  80149a:	83 ec 10             	sub    $0x10,%esp
  return lwip_recvfrom(s, mem, len, flags, NULL, NULL);
  80149d:	6a 00                	push   $0x0
  80149f:	6a 00                	push   $0x0
  8014a1:	ff 75 14             	pushl  0x14(%ebp)
  8014a4:	ff 75 10             	pushl  0x10(%ebp)
  8014a7:	ff 75 0c             	pushl  0xc(%ebp)
  8014aa:	ff 75 08             	pushl  0x8(%ebp)
  8014ad:	e8 8a fd ff ff       	call   80123c <lwip_recvfrom>
}
  8014b2:	c9                   	leave  
  8014b3:	c3                   	ret    

008014b4 <lwip_sendto>:
{
  8014b4:	55                   	push   %ebp
  8014b5:	89 e5                	mov    %esp,%ebp
  8014b7:	57                   	push   %edi
  8014b8:	56                   	push   %esi
  8014b9:	53                   	push   %ebx
  8014ba:	83 ec 2c             	sub    $0x2c,%esp
  8014bd:	8b 5d 10             	mov    0x10(%ebp),%ebx
  8014c0:	8b 7d 18             	mov    0x18(%ebp),%edi
  sock = get_socket(s);
  8014c3:	8b 45 08             	mov    0x8(%ebp),%eax
  8014c6:	e8 3a f2 ff ff       	call   800705 <get_socket>
  if (!sock)
  8014cb:	85 c0                	test   %eax,%eax
  8014cd:	0f 84 28 01 00 00    	je     8015fb <lwip_sendto+0x147>
  8014d3:	89 c6                	mov    %eax,%esi
  if (sock->conn->type==NETCONN_TCP) {
  8014d5:	8b 00                	mov    (%eax),%eax
  8014d7:	83 38 10             	cmpl   $0x10,(%eax)
  8014da:	0f 84 be 00 00 00    	je     80159e <lwip_sendto+0xea>
  LWIP_ASSERT("lwip_sendto: size must fit in u16_t",
  8014e0:	81 fb ff ff 00 00    	cmp    $0xffff,%ebx
  8014e6:	0f 87 c8 00 00 00    	ja     8015b4 <lwip_sendto+0x100>
  LWIP_ERROR("lwip_sendto: invalid address", (((to == NULL) && (tolen == 0)) ||
  8014ec:	89 f8                	mov    %edi,%eax
  8014ee:	0b 45 1c             	or     0x1c(%ebp),%eax
  8014f1:	0f 84 0b 01 00 00    	je     801602 <lwip_sendto+0x14e>
  8014f7:	83 7d 1c 10          	cmpl   $0x10,0x1c(%ebp)
  8014fb:	0f 85 ca 00 00 00    	jne    8015cb <lwip_sendto+0x117>
  801501:	80 7f 01 02          	cmpb   $0x2,0x1(%edi)
  801505:	0f 85 c0 00 00 00    	jne    8015cb <lwip_sendto+0x117>
  buf.p = buf.ptr = NULL;
  80150b:	c7 45 d8 00 00 00 00 	movl   $0x0,-0x28(%ebp)
  801512:	c7 45 d4 00 00 00 00 	movl   $0x0,-0x2c(%ebp)
    remote_addr.addr = ((struct sockaddr_in *)to)->sin_addr.s_addr;
  801519:	8b 47 04             	mov    0x4(%edi),%eax
  80151c:	89 45 e4             	mov    %eax,-0x1c(%ebp)
    remote_port      = ntohs(((struct sockaddr_in *)to)->sin_port);
  80151f:	83 ec 0c             	sub    $0xc,%esp
  801522:	0f b7 47 02          	movzwl 0x2(%edi),%eax
  801526:	50                   	push   %eax
  801527:	e8 a6 61 00 00       	call   8076d2 <ntohs>
    buf.addr         = &remote_addr;
  80152c:	8d 55 e4             	lea    -0x1c(%ebp),%edx
  80152f:	89 55 dc             	mov    %edx,-0x24(%ebp)
    buf.port         = remote_port;
  801532:	66 89 45 e0          	mov    %ax,-0x20(%ebp)
  801536:	83 c4 10             	add    $0x10,%esp
  if ((err = netbuf_ref(&buf, data, size)) == ERR_OK) {
  801539:	83 ec 04             	sub    $0x4,%esp
  80153c:	0f b7 c3             	movzwl %bx,%eax
  80153f:	50                   	push   %eax
  801540:	ff 75 0c             	pushl  0xc(%ebp)
  801543:	8d 45 d4             	lea    -0x2c(%ebp),%eax
  801546:	50                   	push   %eax
  801547:	e8 f8 0f 00 00       	call   802544 <netbuf_ref>
  80154c:	0f be f8             	movsbl %al,%edi
  80154f:	83 c4 10             	add    $0x10,%esp
  801552:	85 ff                	test   %edi,%edi
  801554:	0f 84 88 00 00 00    	je     8015e2 <lwip_sendto+0x12e>
  if (buf.p != NULL) {
  80155a:	8b 45 d4             	mov    -0x2c(%ebp),%eax
  80155d:	85 c0                	test   %eax,%eax
  80155f:	74 0c                	je     80156d <lwip_sendto+0xb9>
    pbuf_free(buf.p);
  801561:	83 ec 0c             	sub    $0xc,%esp
  801564:	50                   	push   %eax
  801565:	e8 79 32 00 00       	call   8047e3 <pbuf_free>
  80156a:	83 c4 10             	add    $0x10,%esp
  sock_set_errno(sock, err_to_errno(err));
  80156d:	89 fa                	mov    %edi,%edx
  80156f:	f7 da                	neg    %edx
  801571:	b8 05 00 00 00       	mov    $0x5,%eax
  801576:	83 fa 0e             	cmp    $0xe,%edx
  801579:	77 07                	ja     801582 <lwip_sendto+0xce>
  80157b:	8b 04 95 80 11 81 00 	mov    0x811180(,%edx,4),%eax
  801582:	89 46 10             	mov    %eax,0x10(%esi)
  801585:	a3 e0 b1 b3 00       	mov    %eax,0xb3b1e0
  return (err==ERR_OK?size:-1);
  80158a:	85 ff                	test   %edi,%edi
  80158c:	b8 ff ff ff ff       	mov    $0xffffffff,%eax
  801591:	0f 45 d8             	cmovne %eax,%ebx
}
  801594:	89 d8                	mov    %ebx,%eax
  801596:	8d 65 f4             	lea    -0xc(%ebp),%esp
  801599:	5b                   	pop    %ebx
  80159a:	5e                   	pop    %esi
  80159b:	5f                   	pop    %edi
  80159c:	5d                   	pop    %ebp
  80159d:	c3                   	ret    
    return lwip_send(s, data, size, flags);
  80159e:	ff 75 14             	pushl  0x14(%ebp)
  8015a1:	53                   	push   %ebx
  8015a2:	ff 75 0c             	pushl  0xc(%ebp)
  8015a5:	ff 75 08             	pushl  0x8(%ebp)
  8015a8:	e8 7c 00 00 00       	call   801629 <lwip_send>
  8015ad:	89 c3                	mov    %eax,%ebx
  8015af:	83 c4 10             	add    $0x10,%esp
  8015b2:	eb e0                	jmp    801594 <lwip_sendto+0xe0>
  LWIP_ASSERT("lwip_sendto: size must fit in u16_t",
  8015b4:	83 ec 04             	sub    $0x4,%esp
  8015b7:	68 40 11 81 00       	push   $0x811140
  8015bc:	68 97 02 00 00       	push   $0x297
  8015c1:	68 b0 10 81 00       	push   $0x8110b0
  8015c6:	e8 a5 cf 00 00       	call   80e570 <_panic>
  LWIP_ERROR("lwip_sendto: invalid address", (((to == NULL) && (tolen == 0)) ||
  8015cb:	83 ec 04             	sub    $0x4,%esp
  8015ce:	68 21 11 81 00       	push   $0x811121
  8015d3:	68 9b 02 00 00       	push   $0x29b
  8015d8:	68 b0 10 81 00       	push   $0x8110b0
  8015dd:	e8 8e cf 00 00       	call   80e570 <_panic>
    err = netconn_send(sock->conn, &buf);
  8015e2:	83 ec 08             	sub    $0x8,%esp
  8015e5:	8d 45 d4             	lea    -0x2c(%ebp),%eax
  8015e8:	50                   	push   %eax
  8015e9:	ff 36                	pushl  (%esi)
  8015eb:	e8 a1 9a 00 00       	call   80b091 <netconn_send>
  8015f0:	0f be f8             	movsbl %al,%edi
  8015f3:	83 c4 10             	add    $0x10,%esp
  8015f6:	e9 5f ff ff ff       	jmp    80155a <lwip_sendto+0xa6>
    return -1;
  8015fb:	bb ff ff ff ff       	mov    $0xffffffff,%ebx
  801600:	eb 92                	jmp    801594 <lwip_sendto+0xe0>
  buf.p = buf.ptr = NULL;
  801602:	c7 45 d8 00 00 00 00 	movl   $0x0,-0x28(%ebp)
  801609:	c7 45 d4 00 00 00 00 	movl   $0x0,-0x2c(%ebp)
    remote_addr.addr = 0;
  801610:	c7 45 e4 00 00 00 00 	movl   $0x0,-0x1c(%ebp)
    buf.addr         = NULL;
  801617:	c7 45 dc 00 00 00 00 	movl   $0x0,-0x24(%ebp)
    buf.port         = 0;
  80161e:	66 c7 45 e0 00 00    	movw   $0x0,-0x20(%ebp)
  801624:	e9 10 ff ff ff       	jmp    801539 <lwip_sendto+0x85>

00801629 <lwip_send>:
{
  801629:	55                   	push   %ebp
  80162a:	89 e5                	mov    %esp,%ebp
  80162c:	57                   	push   %edi
  80162d:	56                   	push   %esi
  80162e:	53                   	push   %ebx
  80162f:	83 ec 0c             	sub    $0xc,%esp
  801632:	8b 7d 08             	mov    0x8(%ebp),%edi
  801635:	8b 5d 10             	mov    0x10(%ebp),%ebx
  sock = get_socket(s);
  801638:	89 f8                	mov    %edi,%eax
  80163a:	e8 c6 f0 ff ff       	call   800705 <get_socket>
  if (!sock)
  80163f:	85 c0                	test   %eax,%eax
  801641:	74 70                	je     8016b3 <lwip_send+0x8a>
  801643:	89 c6                	mov    %eax,%esi
  if (sock->conn->type!=NETCONN_TCP) {
  801645:	8b 00                	mov    (%eax),%eax
  801647:	83 38 10             	cmpl   $0x10,(%eax)
  80164a:	74 1f                	je     80166b <lwip_send+0x42>
    return lwip_sendto(s, data, size, flags, NULL, 0);
  80164c:	83 ec 08             	sub    $0x8,%esp
  80164f:	6a 00                	push   $0x0
  801651:	6a 00                	push   $0x0
  801653:	ff 75 14             	pushl  0x14(%ebp)
  801656:	53                   	push   %ebx
  801657:	ff 75 0c             	pushl  0xc(%ebp)
  80165a:	57                   	push   %edi
  80165b:	e8 54 fe ff ff       	call   8014b4 <lwip_sendto>
  801660:	83 c4 20             	add    $0x20,%esp
}
  801663:	8d 65 f4             	lea    -0xc(%ebp),%esp
  801666:	5b                   	pop    %ebx
  801667:	5e                   	pop    %esi
  801668:	5f                   	pop    %edi
  801669:	5d                   	pop    %ebp
  80166a:	c3                   	ret    
  err = netconn_write(sock->conn, data, size, NETCONN_COPY | ((flags & MSG_MORE)?NETCONN_MORE:0));
  80166b:	8b 55 14             	mov    0x14(%ebp),%edx
  80166e:	c1 ea 03             	shr    $0x3,%edx
  801671:	83 e2 02             	and    $0x2,%edx
  801674:	83 ca 01             	or     $0x1,%edx
  801677:	0f b6 d2             	movzbl %dl,%edx
  80167a:	52                   	push   %edx
  80167b:	53                   	push   %ebx
  80167c:	ff 75 0c             	pushl  0xc(%ebp)
  80167f:	50                   	push   %eax
  801680:	e8 88 9a 00 00       	call   80b10d <netconn_write>
  sock_set_errno(sock, err_to_errno(err));
  801685:	0f be d0             	movsbl %al,%edx
  801688:	f7 da                	neg    %edx
  80168a:	83 c4 10             	add    $0x10,%esp
  80168d:	b9 05 00 00 00       	mov    $0x5,%ecx
  801692:	83 fa 0e             	cmp    $0xe,%edx
  801695:	77 07                	ja     80169e <lwip_send+0x75>
  801697:	8b 0c 95 80 11 81 00 	mov    0x811180(,%edx,4),%ecx
  80169e:	89 4e 10             	mov    %ecx,0x10(%esi)
  8016a1:	89 0d e0 b1 b3 00    	mov    %ecx,0xb3b1e0
  return (err==ERR_OK?size:-1);
  8016a7:	84 c0                	test   %al,%al
  8016a9:	b8 ff ff ff ff       	mov    $0xffffffff,%eax
  8016ae:	0f 44 c3             	cmove  %ebx,%eax
  8016b1:	eb b0                	jmp    801663 <lwip_send+0x3a>
    return -1;
  8016b3:	b8 ff ff ff ff       	mov    $0xffffffff,%eax
  8016b8:	eb a9                	jmp    801663 <lwip_send+0x3a>

008016ba <lwip_socket>:
{
  8016ba:	55                   	push   %ebp
  8016bb:	89 e5                	mov    %esp,%ebp
  8016bd:	56                   	push   %esi
  8016be:	53                   	push   %ebx
  8016bf:	8b 45 0c             	mov    0xc(%ebp),%eax
  switch (type) {
  8016c2:	83 f8 02             	cmp    $0x2,%eax
  8016c5:	74 5c                	je     801723 <lwip_socket+0x69>
  8016c7:	83 f8 03             	cmp    $0x3,%eax
  8016ca:	74 16                	je     8016e2 <lwip_socket+0x28>
  8016cc:	83 f8 01             	cmp    $0x1,%eax
  8016cf:	74 79                	je     80174a <lwip_socket+0x90>
    set_errno(EINVAL);
  8016d1:	c7 05 e0 b1 b3 00 16 	movl   $0x16,0xb3b1e0
  8016d8:	00 00 00 
    return -1;
  8016db:	bb ff ff ff ff       	mov    $0xffffffff,%ebx
  8016e0:	eb 38                	jmp    80171a <lwip_socket+0x60>
    conn = netconn_new_with_proto_and_callback(NETCONN_RAW, (u8_t)protocol, event_callback);
  8016e2:	83 ec 04             	sub    $0x4,%esp
  8016e5:	68 f5 08 80 00       	push   $0x8008f5
  8016ea:	0f b6 45 10          	movzbl 0x10(%ebp),%eax
  8016ee:	50                   	push   %eax
  8016ef:	6a 40                	push   $0x40
  8016f1:	e8 99 94 00 00       	call   80ab8f <netconn_new_with_proto_and_callback>
  8016f6:	89 c6                	mov    %eax,%esi
    break;
  8016f8:	83 c4 10             	add    $0x10,%esp
  if (!conn) {
  8016fb:	85 f6                	test   %esi,%esi
  8016fd:	74 63                	je     801762 <lwip_socket+0xa8>
  i = alloc_socket(conn);
  8016ff:	89 f0                	mov    %esi,%eax
  801701:	e8 99 f3 ff ff       	call   800a9f <alloc_socket>
  801706:	89 c3                	mov    %eax,%ebx
  if (i == -1) {
  801708:	83 f8 ff             	cmp    $0xffffffff,%eax
  80170b:	74 66                	je     801773 <lwip_socket+0xb9>
  conn->socket = i;
  80170d:	89 46 1c             	mov    %eax,0x1c(%esi)
  set_errno(0);
  801710:	c7 05 e0 b1 b3 00 00 	movl   $0x0,0xb3b1e0
  801717:	00 00 00 
}
  80171a:	89 d8                	mov    %ebx,%eax
  80171c:	8d 65 f8             	lea    -0x8(%ebp),%esp
  80171f:	5b                   	pop    %ebx
  801720:	5e                   	pop    %esi
  801721:	5d                   	pop    %ebp
  801722:	c3                   	ret    
    conn = netconn_new_with_callback( (protocol == IPPROTO_UDPLITE) ?
  801723:	81 7d 10 88 00 00 00 	cmpl   $0x88,0x10(%ebp)
  80172a:	0f 94 c0             	sete   %al
  80172d:	0f b6 c0             	movzbl %al,%eax
  801730:	83 c0 20             	add    $0x20,%eax
  801733:	83 ec 04             	sub    $0x4,%esp
  801736:	68 f5 08 80 00       	push   $0x8008f5
  80173b:	6a 00                	push   $0x0
  80173d:	50                   	push   %eax
  80173e:	e8 4c 94 00 00       	call   80ab8f <netconn_new_with_proto_and_callback>
  801743:	89 c6                	mov    %eax,%esi
    break;
  801745:	83 c4 10             	add    $0x10,%esp
  801748:	eb b1                	jmp    8016fb <lwip_socket+0x41>
    conn = netconn_new_with_callback(NETCONN_TCP, event_callback);
  80174a:	83 ec 04             	sub    $0x4,%esp
  80174d:	68 f5 08 80 00       	push   $0x8008f5
  801752:	6a 00                	push   $0x0
  801754:	6a 10                	push   $0x10
  801756:	e8 34 94 00 00       	call   80ab8f <netconn_new_with_proto_and_callback>
  80175b:	89 c6                	mov    %eax,%esi
    break;
  80175d:	83 c4 10             	add    $0x10,%esp
  801760:	eb 99                	jmp    8016fb <lwip_socket+0x41>
    set_errno(ENOBUFS);
  801762:	c7 05 e0 b1 b3 00 69 	movl   $0x69,0xb3b1e0
  801769:	00 00 00 
    return -1;
  80176c:	bb ff ff ff ff       	mov    $0xffffffff,%ebx
  801771:	eb a7                	jmp    80171a <lwip_socket+0x60>
    netconn_delete(conn);
  801773:	83 ec 0c             	sub    $0xc,%esp
  801776:	56                   	push   %esi
  801777:	e8 f0 94 00 00       	call   80ac6c <netconn_delete>
    set_errno(ENFILE);
  80177c:	c7 05 e0 b1 b3 00 17 	movl   $0x17,0xb3b1e0
  801783:	00 00 00 
    return -1;
  801786:	83 c4 10             	add    $0x10,%esp
  801789:	eb 8f                	jmp    80171a <lwip_socket+0x60>

0080178b <lwip_write>:
{
  80178b:	55                   	push   %ebp
  80178c:	89 e5                	mov    %esp,%ebp
  80178e:	83 ec 08             	sub    $0x8,%esp
  return lwip_send(s, data, size, 0);
  801791:	6a 00                	push   $0x0
  801793:	ff 75 10             	pushl  0x10(%ebp)
  801796:	ff 75 0c             	pushl  0xc(%ebp)
  801799:	ff 75 08             	pushl  0x8(%ebp)
  80179c:	e8 88 fe ff ff       	call   801629 <lwip_send>
}
  8017a1:	c9                   	leave  
  8017a2:	c3                   	ret    

008017a3 <lwip_select>:
{
  8017a3:	55                   	push   %ebp
  8017a4:	89 e5                	mov    %esp,%ebp
  8017a6:	57                   	push   %edi
  8017a7:	56                   	push   %esi
  8017a8:	53                   	push   %ebx
  8017a9:	83 ec 58             	sub    $0x58,%esp
  8017ac:	8b 5d 0c             	mov    0xc(%ebp),%ebx
  8017af:	8b 75 10             	mov    0x10(%ebp),%esi
  8017b2:	8b 7d 14             	mov    0x14(%ebp),%edi
  select_cb.next = 0;
  8017b5:	c7 45 c4 00 00 00 00 	movl   $0x0,-0x3c(%ebp)
  select_cb.readset = readset;
  8017bc:	89 5d c8             	mov    %ebx,-0x38(%ebp)
  select_cb.writeset = writeset;
  8017bf:	89 75 cc             	mov    %esi,-0x34(%ebp)
  select_cb.exceptset = exceptset;
  8017c2:	89 7d d0             	mov    %edi,-0x30(%ebp)
  select_cb.sem_signalled = 0;
  8017c5:	c7 45 d4 00 00 00 00 	movl   $0x0,-0x2c(%ebp)
  sys_sem_wait(selectsem);
  8017cc:	ff 35 40 50 81 00    	pushl  0x815040
  8017d2:	e8 ea 38 00 00       	call   8050c1 <sys_sem_wait>
  if (readset)
  8017d7:	83 c4 10             	add    $0x10,%esp
  8017da:	85 db                	test   %ebx,%ebx
  8017dc:	0f 84 07 01 00 00    	je     8018e9 <lwip_select+0x146>
    lreadset = *readset;
  8017e2:	8b 03                	mov    (%ebx),%eax
  8017e4:	89 45 e4             	mov    %eax,-0x1c(%ebp)
  if (writeset)
  8017e7:	85 f6                	test   %esi,%esi
  8017e9:	0f 84 12 01 00 00    	je     801901 <lwip_select+0x15e>
    lwriteset = *writeset;
  8017ef:	8b 06                	mov    (%esi),%eax
  8017f1:	89 45 e0             	mov    %eax,-0x20(%ebp)
  if (exceptset)
  8017f4:	85 ff                	test   %edi,%edi
  8017f6:	0f 84 1d 01 00 00    	je     801919 <lwip_select+0x176>
    lexceptset = *exceptset;
  8017fc:	8b 07                	mov    (%edi),%eax
  8017fe:	89 45 dc             	mov    %eax,-0x24(%ebp)
  nready = lwip_selscan(maxfdp1, &lreadset, &lwriteset, &lexceptset);
  801801:	83 ec 0c             	sub    $0xc,%esp
  801804:	8d 45 dc             	lea    -0x24(%ebp),%eax
  801807:	50                   	push   %eax
  801808:	8d 4d e0             	lea    -0x20(%ebp),%ecx
  80180b:	8d 55 e4             	lea    -0x1c(%ebp),%edx
  80180e:	8b 45 08             	mov    0x8(%ebp),%eax
  801811:	e8 2f ef ff ff       	call   800745 <lwip_selscan>
  801816:	89 45 b4             	mov    %eax,-0x4c(%ebp)
  if (!nready) {
  801819:	83 c4 10             	add    $0x10,%esp
  80181c:	85 c0                	test   %eax,%eax
  80181e:	0f 85 9c 02 00 00    	jne    801ac0 <lwip_select+0x31d>
    if (timeout && timeout->tv_sec == 0 && timeout->tv_usec == 0) {
  801824:	83 7d 18 00          	cmpl   $0x0,0x18(%ebp)
  801828:	0f 84 a8 02 00 00    	je     801ad6 <lwip_select+0x333>
  80182e:	8b 45 18             	mov    0x18(%ebp),%eax
  801831:	83 38 00             	cmpl   $0x0,(%eax)
  801834:	75 0a                	jne    801840 <lwip_select+0x9d>
  801836:	83 78 04 00          	cmpl   $0x0,0x4(%eax)
  80183a:	0f 84 f1 00 00 00    	je     801931 <lwip_select+0x18e>
    select_cb.sem = sys_sem_new(0);
  801840:	83 ec 0c             	sub    $0xc,%esp
  801843:	6a 00                	push   $0x0
  801845:	e8 57 85 00 00       	call   809da1 <sys_sem_new>
  80184a:	89 45 d8             	mov    %eax,-0x28(%ebp)
    select_cb.next = select_cb_list;
  80184d:	a1 48 50 81 00       	mov    0x815048,%eax
  801852:	89 45 c4             	mov    %eax,-0x3c(%ebp)
    select_cb_list = &select_cb;
  801855:	8d 45 c4             	lea    -0x3c(%ebp),%eax
  801858:	a3 48 50 81 00       	mov    %eax,0x815048
    sys_sem_signal(selectsem);
  80185d:	83 c4 04             	add    $0x4,%esp
  801860:	ff 35 40 50 81 00    	pushl  0x815040
  801866:	e8 f3 87 00 00       	call   80a05e <sys_sem_signal>
      msectimeout =  ((timeout->tv_sec * 1000) + ((timeout->tv_usec + 500)/1000));
  80186b:	8b 45 18             	mov    0x18(%ebp),%eax
  80186e:	8b 40 04             	mov    0x4(%eax),%eax
  801871:	89 45 b4             	mov    %eax,-0x4c(%ebp)
  801874:	8d 88 f4 01 00 00    	lea    0x1f4(%eax),%ecx
  80187a:	ba d3 4d 62 10       	mov    $0x10624dd3,%edx
  80187f:	89 c8                	mov    %ecx,%eax
  801881:	f7 ea                	imul   %edx
  801883:	c1 fa 06             	sar    $0x6,%edx
  801886:	c1 f9 1f             	sar    $0x1f,%ecx
  801889:	29 ca                	sub    %ecx,%edx
  80188b:	8b 45 18             	mov    0x18(%ebp),%eax
  80188e:	69 00 e8 03 00 00    	imul   $0x3e8,(%eax),%eax
      if(msectimeout == 0)
  801894:	83 c4 10             	add    $0x10,%esp
  801897:	01 d0                	add    %edx,%eax
        msectimeout = 1;
  801899:	ba 01 00 00 00       	mov    $0x1,%edx
  80189e:	0f 44 c2             	cmove  %edx,%eax
    i = sys_sem_wait_timeout(select_cb.sem, msectimeout);
  8018a1:	83 ec 08             	sub    $0x8,%esp
  8018a4:	50                   	push   %eax
  8018a5:	ff 75 d8             	pushl  -0x28(%ebp)
  8018a8:	e8 e4 39 00 00       	call   805291 <sys_sem_wait_timeout>
  8018ad:	89 45 b4             	mov    %eax,-0x4c(%ebp)
    sys_sem_wait(selectsem);
  8018b0:	83 c4 04             	add    $0x4,%esp
  8018b3:	ff 35 40 50 81 00    	pushl  0x815040
  8018b9:	e8 03 38 00 00       	call   8050c1 <sys_sem_wait>
    if (select_cb_list == &select_cb)
  8018be:	a1 48 50 81 00       	mov    0x815048,%eax
  8018c3:	8d 55 c4             	lea    -0x3c(%ebp),%edx
  8018c6:	83 c4 10             	add    $0x10,%esp
        if (p_selcb->next == &select_cb) {
  8018c9:	89 d1                	mov    %edx,%ecx
    if (select_cb_list == &select_cb)
  8018cb:	39 d0                	cmp    %edx,%eax
  8018cd:	0f 84 ba 00 00 00    	je     80198d <lwip_select+0x1ea>
      for (p_selcb = select_cb_list; p_selcb; p_selcb = p_selcb->next) {
  8018d3:	85 c0                	test   %eax,%eax
  8018d5:	0f 84 c1 00 00 00    	je     80199c <lwip_select+0x1f9>
        if (p_selcb->next == &select_cb) {
  8018db:	8b 10                	mov    (%eax),%edx
  8018dd:	39 ca                	cmp    %ecx,%edx
  8018df:	0f 84 b2 00 00 00    	je     801997 <lwip_select+0x1f4>
      for (p_selcb = select_cb_list; p_selcb; p_selcb = p_selcb->next) {
  8018e5:	89 d0                	mov    %edx,%eax
  8018e7:	eb ea                	jmp    8018d3 <lwip_select+0x130>
    FD_ZERO(&lreadset);
  8018e9:	83 ec 04             	sub    $0x4,%esp
  8018ec:	6a 04                	push   $0x4
  8018ee:	6a 00                	push   $0x0
  8018f0:	8d 45 e4             	lea    -0x1c(%ebp),%eax
  8018f3:	50                   	push   %eax
  8018f4:	e8 74 d4 00 00       	call   80ed6d <memset>
  8018f9:	83 c4 10             	add    $0x10,%esp
  8018fc:	e9 e6 fe ff ff       	jmp    8017e7 <lwip_select+0x44>
    FD_ZERO(&lwriteset);
  801901:	83 ec 04             	sub    $0x4,%esp
  801904:	6a 04                	push   $0x4
  801906:	6a 00                	push   $0x0
  801908:	8d 45 e0             	lea    -0x20(%ebp),%eax
  80190b:	50                   	push   %eax
  80190c:	e8 5c d4 00 00       	call   80ed6d <memset>
  801911:	83 c4 10             	add    $0x10,%esp
  801914:	e9 db fe ff ff       	jmp    8017f4 <lwip_select+0x51>
    FD_ZERO(&lexceptset);
  801919:	83 ec 04             	sub    $0x4,%esp
  80191c:	6a 04                	push   $0x4
  80191e:	6a 00                	push   $0x0
  801920:	8d 45 dc             	lea    -0x24(%ebp),%eax
  801923:	50                   	push   %eax
  801924:	e8 44 d4 00 00       	call   80ed6d <memset>
  801929:	83 c4 10             	add    $0x10,%esp
  80192c:	e9 d0 fe ff ff       	jmp    801801 <lwip_select+0x5e>
      sys_sem_signal(selectsem);
  801931:	83 ec 0c             	sub    $0xc,%esp
  801934:	ff 35 40 50 81 00    	pushl  0x815040
  80193a:	e8 1f 87 00 00       	call   80a05e <sys_sem_signal>
      if (readset)
  80193f:	83 c4 10             	add    $0x10,%esp
  801942:	85 db                	test   %ebx,%ebx
  801944:	74 10                	je     801956 <lwip_select+0x1b3>
        FD_ZERO(readset);
  801946:	83 ec 04             	sub    $0x4,%esp
  801949:	6a 04                	push   $0x4
  80194b:	6a 00                	push   $0x0
  80194d:	53                   	push   %ebx
  80194e:	e8 1a d4 00 00       	call   80ed6d <memset>
  801953:	83 c4 10             	add    $0x10,%esp
      if (writeset)
  801956:	85 f6                	test   %esi,%esi
  801958:	74 10                	je     80196a <lwip_select+0x1c7>
        FD_ZERO(writeset);
  80195a:	83 ec 04             	sub    $0x4,%esp
  80195d:	6a 04                	push   $0x4
  80195f:	6a 00                	push   $0x0
  801961:	56                   	push   %esi
  801962:	e8 06 d4 00 00       	call   80ed6d <memset>
  801967:	83 c4 10             	add    $0x10,%esp
      if (exceptset)
  80196a:	85 ff                	test   %edi,%edi
  80196c:	74 10                	je     80197e <lwip_select+0x1db>
        FD_ZERO(exceptset);
  80196e:	83 ec 04             	sub    $0x4,%esp
  801971:	6a 04                	push   $0x4
  801973:	6a 00                	push   $0x0
  801975:	57                   	push   %edi
  801976:	e8 f2 d3 00 00       	call   80ed6d <memset>
  80197b:	83 c4 10             	add    $0x10,%esp
      set_errno(0);
  80197e:	c7 05 e0 b1 b3 00 00 	movl   $0x0,0xb3b1e0
  801985:	00 00 00 
      return 0;
  801988:	e9 98 00 00 00       	jmp    801a25 <lwip_select+0x282>
      select_cb_list = select_cb.next;
  80198d:	8b 45 c4             	mov    -0x3c(%ebp),%eax
  801990:	a3 48 50 81 00       	mov    %eax,0x815048
  801995:	eb 05                	jmp    80199c <lwip_select+0x1f9>
          p_selcb->next = select_cb.next;
  801997:	8b 55 c4             	mov    -0x3c(%ebp),%edx
  80199a:	89 10                	mov    %edx,(%eax)
    sys_sem_signal(selectsem);
  80199c:	83 ec 0c             	sub    $0xc,%esp
  80199f:	ff 35 40 50 81 00    	pushl  0x815040
  8019a5:	e8 b4 86 00 00       	call   80a05e <sys_sem_signal>
    sys_sem_free(select_cb.sem);
  8019aa:	83 c4 04             	add    $0x4,%esp
  8019ad:	ff 75 d8             	pushl  -0x28(%ebp)
  8019b0:	e8 6d 84 00 00       	call   809e22 <sys_sem_free>
    if (i == 0)  {
  8019b5:	83 c4 10             	add    $0x10,%esp
  8019b8:	83 7d b4 00          	cmpl   $0x0,-0x4c(%ebp)
  8019bc:	74 72                	je     801a30 <lwip_select+0x28d>
    if (readset)
  8019be:	85 db                	test   %ebx,%ebx
  8019c0:	0f 84 b2 00 00 00    	je     801a78 <lwip_select+0x2d5>
      lreadset = *readset;
  8019c6:	8b 03                	mov    (%ebx),%eax
  8019c8:	89 45 e4             	mov    %eax,-0x1c(%ebp)
    if (writeset)
  8019cb:	85 f6                	test   %esi,%esi
  8019cd:	0f 84 bd 00 00 00    	je     801a90 <lwip_select+0x2ed>
      lwriteset = *writeset;
  8019d3:	8b 06                	mov    (%esi),%eax
  8019d5:	89 45 e0             	mov    %eax,-0x20(%ebp)
    if (exceptset)
  8019d8:	85 ff                	test   %edi,%edi
  8019da:	0f 84 c8 00 00 00    	je     801aa8 <lwip_select+0x305>
      lexceptset = *exceptset;
  8019e0:	8b 07                	mov    (%edi),%eax
  8019e2:	89 45 dc             	mov    %eax,-0x24(%ebp)
    nready = lwip_selscan(maxfdp1, &lreadset, &lwriteset, &lexceptset);
  8019e5:	83 ec 0c             	sub    $0xc,%esp
  8019e8:	8d 45 dc             	lea    -0x24(%ebp),%eax
  8019eb:	50                   	push   %eax
  8019ec:	8d 4d e0             	lea    -0x20(%ebp),%ecx
  8019ef:	8d 55 e4             	lea    -0x1c(%ebp),%edx
  8019f2:	8b 45 08             	mov    0x8(%ebp),%eax
  8019f5:	e8 4b ed ff ff       	call   800745 <lwip_selscan>
  8019fa:	89 45 b4             	mov    %eax,-0x4c(%ebp)
  8019fd:	83 c4 10             	add    $0x10,%esp
  if (readset)
  801a00:	85 db                	test   %ebx,%ebx
  801a02:	74 05                	je     801a09 <lwip_select+0x266>
    *readset = lreadset;
  801a04:	8b 45 e4             	mov    -0x1c(%ebp),%eax
  801a07:	89 03                	mov    %eax,(%ebx)
  if (writeset)
  801a09:	85 f6                	test   %esi,%esi
  801a0b:	74 05                	je     801a12 <lwip_select+0x26f>
    *writeset = lwriteset;
  801a0d:	8b 45 e0             	mov    -0x20(%ebp),%eax
  801a10:	89 06                	mov    %eax,(%esi)
  if (exceptset)
  801a12:	85 ff                	test   %edi,%edi
  801a14:	74 05                	je     801a1b <lwip_select+0x278>
    *exceptset = lexceptset;
  801a16:	8b 45 dc             	mov    -0x24(%ebp),%eax
  801a19:	89 07                	mov    %eax,(%edi)
  set_errno(0);
  801a1b:	c7 05 e0 b1 b3 00 00 	movl   $0x0,0xb3b1e0
  801a22:	00 00 00 
}
  801a25:	8b 45 b4             	mov    -0x4c(%ebp),%eax
  801a28:	8d 65 f4             	lea    -0xc(%ebp),%esp
  801a2b:	5b                   	pop    %ebx
  801a2c:	5e                   	pop    %esi
  801a2d:	5f                   	pop    %edi
  801a2e:	5d                   	pop    %ebp
  801a2f:	c3                   	ret    
      if (readset)
  801a30:	85 db                	test   %ebx,%ebx
  801a32:	74 10                	je     801a44 <lwip_select+0x2a1>
        FD_ZERO(readset);
  801a34:	83 ec 04             	sub    $0x4,%esp
  801a37:	6a 04                	push   $0x4
  801a39:	6a 00                	push   $0x0
  801a3b:	53                   	push   %ebx
  801a3c:	e8 2c d3 00 00       	call   80ed6d <memset>
  801a41:	83 c4 10             	add    $0x10,%esp
      if (writeset)
  801a44:	85 f6                	test   %esi,%esi
  801a46:	74 10                	je     801a58 <lwip_select+0x2b5>
        FD_ZERO(writeset);
  801a48:	83 ec 04             	sub    $0x4,%esp
  801a4b:	6a 04                	push   $0x4
  801a4d:	6a 00                	push   $0x0
  801a4f:	56                   	push   %esi
  801a50:	e8 18 d3 00 00       	call   80ed6d <memset>
  801a55:	83 c4 10             	add    $0x10,%esp
      if (exceptset)
  801a58:	85 ff                	test   %edi,%edi
  801a5a:	74 10                	je     801a6c <lwip_select+0x2c9>
        FD_ZERO(exceptset);
  801a5c:	83 ec 04             	sub    $0x4,%esp
  801a5f:	6a 04                	push   $0x4
  801a61:	6a 00                	push   $0x0
  801a63:	57                   	push   %edi
  801a64:	e8 04 d3 00 00       	call   80ed6d <memset>
  801a69:	83 c4 10             	add    $0x10,%esp
      set_errno(0);
  801a6c:	c7 05 e0 b1 b3 00 00 	movl   $0x0,0xb3b1e0
  801a73:	00 00 00 
      return 0;
  801a76:	eb ad                	jmp    801a25 <lwip_select+0x282>
      FD_ZERO(&lreadset);
  801a78:	83 ec 04             	sub    $0x4,%esp
  801a7b:	6a 04                	push   $0x4
  801a7d:	6a 00                	push   $0x0
  801a7f:	8d 45 e4             	lea    -0x1c(%ebp),%eax
  801a82:	50                   	push   %eax
  801a83:	e8 e5 d2 00 00       	call   80ed6d <memset>
  801a88:	83 c4 10             	add    $0x10,%esp
  801a8b:	e9 3b ff ff ff       	jmp    8019cb <lwip_select+0x228>
      FD_ZERO(&lwriteset);
  801a90:	83 ec 04             	sub    $0x4,%esp
  801a93:	6a 04                	push   $0x4
  801a95:	6a 00                	push   $0x0
  801a97:	8d 45 e0             	lea    -0x20(%ebp),%eax
  801a9a:	50                   	push   %eax
  801a9b:	e8 cd d2 00 00       	call   80ed6d <memset>
  801aa0:	83 c4 10             	add    $0x10,%esp
  801aa3:	e9 30 ff ff ff       	jmp    8019d8 <lwip_select+0x235>
      FD_ZERO(&lexceptset);
  801aa8:	83 ec 04             	sub    $0x4,%esp
  801aab:	6a 04                	push   $0x4
  801aad:	6a 00                	push   $0x0
  801aaf:	8d 45 dc             	lea    -0x24(%ebp),%eax
  801ab2:	50                   	push   %eax
  801ab3:	e8 b5 d2 00 00       	call   80ed6d <memset>
  801ab8:	83 c4 10             	add    $0x10,%esp
  801abb:	e9 25 ff ff ff       	jmp    8019e5 <lwip_select+0x242>
    sys_sem_signal(selectsem);
  801ac0:	83 ec 0c             	sub    $0xc,%esp
  801ac3:	ff 35 40 50 81 00    	pushl  0x815040
  801ac9:	e8 90 85 00 00       	call   80a05e <sys_sem_signal>
  801ace:	83 c4 10             	add    $0x10,%esp
  801ad1:	e9 2a ff ff ff       	jmp    801a00 <lwip_select+0x25d>
    select_cb.sem = sys_sem_new(0);
  801ad6:	83 ec 0c             	sub    $0xc,%esp
  801ad9:	6a 00                	push   $0x0
  801adb:	e8 c1 82 00 00       	call   809da1 <sys_sem_new>
  801ae0:	89 45 d8             	mov    %eax,-0x28(%ebp)
    select_cb.next = select_cb_list;
  801ae3:	a1 48 50 81 00       	mov    0x815048,%eax
  801ae8:	89 45 c4             	mov    %eax,-0x3c(%ebp)
    select_cb_list = &select_cb;
  801aeb:	8d 45 c4             	lea    -0x3c(%ebp),%eax
  801aee:	a3 48 50 81 00       	mov    %eax,0x815048
    sys_sem_signal(selectsem);
  801af3:	83 c4 04             	add    $0x4,%esp
  801af6:	ff 35 40 50 81 00    	pushl  0x815040
  801afc:	e8 5d 85 00 00       	call   80a05e <sys_sem_signal>
  801b01:	83 c4 10             	add    $0x10,%esp
      msectimeout = 0;
  801b04:	b8 00 00 00 00       	mov    $0x0,%eax
  801b09:	e9 93 fd ff ff       	jmp    8018a1 <lwip_select+0xfe>

00801b0e <lwip_shutdown>:
{
  801b0e:	55                   	push   %ebp
  801b0f:	89 e5                	mov    %esp,%ebp
  801b11:	83 ec 14             	sub    $0x14,%esp
  return lwip_close(s); /* XXX temporary hack until proper implementation */
  801b14:	ff 75 08             	pushl  0x8(%ebp)
  801b17:	e8 57 f5 ff ff       	call   801073 <lwip_close>
}
  801b1c:	c9                   	leave  
  801b1d:	c3                   	ret    

00801b1e <lwip_getpeername>:
{
  801b1e:	55                   	push   %ebp
  801b1f:	89 e5                	mov    %esp,%ebp
  801b21:	83 ec 14             	sub    $0x14,%esp
  return lwip_getaddrname(s, name, namelen, 0);
  801b24:	6a 00                	push   $0x0
  801b26:	8b 4d 10             	mov    0x10(%ebp),%ecx
  801b29:	8b 55 0c             	mov    0xc(%ebp),%edx
  801b2c:	8b 45 08             	mov    0x8(%ebp),%eax
  801b2f:	e8 16 ed ff ff       	call   80084a <lwip_getaddrname>
}
  801b34:	c9                   	leave  
  801b35:	c3                   	ret    

00801b36 <lwip_getsockname>:
{
  801b36:	55                   	push   %ebp
  801b37:	89 e5                	mov    %esp,%ebp
  801b39:	83 ec 14             	sub    $0x14,%esp
  return lwip_getaddrname(s, name, namelen, 1);
  801b3c:	6a 01                	push   $0x1
  801b3e:	8b 4d 10             	mov    0x10(%ebp),%ecx
  801b41:	8b 55 0c             	mov    0xc(%ebp),%edx
  801b44:	8b 45 08             	mov    0x8(%ebp),%eax
  801b47:	e8 fe ec ff ff       	call   80084a <lwip_getaddrname>
}
  801b4c:	c9                   	leave  
  801b4d:	c3                   	ret    

00801b4e <lwip_getsockopt>:
{
  801b4e:	55                   	push   %ebp
  801b4f:	89 e5                	mov    %esp,%ebp
  801b51:	57                   	push   %edi
  801b52:	56                   	push   %esi
  801b53:	53                   	push   %ebx
  801b54:	83 ec 2c             	sub    $0x2c,%esp
  801b57:	8b 5d 0c             	mov    0xc(%ebp),%ebx
  801b5a:	8b 7d 10             	mov    0x10(%ebp),%edi
  struct lwip_socket *sock = get_socket(s);
  801b5d:	8b 45 08             	mov    0x8(%ebp),%eax
  801b60:	e8 a0 eb ff ff       	call   800705 <get_socket>
  if (!sock)
  801b65:	85 c0                	test   %eax,%eax
  801b67:	0f 84 af 01 00 00    	je     801d1c <lwip_getsockopt+0x1ce>
  801b6d:	89 c6                	mov    %eax,%esi
  if ((NULL == optval) || (NULL == optlen)) {
  801b6f:	83 7d 14 00          	cmpl   $0x0,0x14(%ebp)
  801b73:	74 39                	je     801bae <lwip_getsockopt+0x60>
  801b75:	83 7d 18 00          	cmpl   $0x0,0x18(%ebp)
  801b79:	74 33                	je     801bae <lwip_getsockopt+0x60>
  switch (level) {
  801b7b:	83 fb 06             	cmp    $0x6,%ebx
  801b7e:	0f 84 36 01 00 00    	je     801cba <lwip_getsockopt+0x16c>
  801b84:	81 fb ff 0f 00 00    	cmp    $0xfff,%ebx
  801b8a:	74 3d                	je     801bc9 <lwip_getsockopt+0x7b>
      err = ENOPROTOOPT;
  801b8c:	b8 5c 00 00 00       	mov    $0x5c,%eax
  switch (level) {
  801b91:	85 db                	test   %ebx,%ebx
  801b93:	0f 84 a9 00 00 00    	je     801c42 <lwip_getsockopt+0xf4>
    sock_set_errno(sock, err);
  801b99:	0f be c0             	movsbl %al,%eax
  801b9c:	89 46 10             	mov    %eax,0x10(%esi)
  801b9f:	a3 e0 b1 b3 00       	mov    %eax,0xb3b1e0
    return -1;
  801ba4:	b8 ff ff ff ff       	mov    $0xffffffff,%eax
  801ba9:	e9 04 01 00 00       	jmp    801cb2 <lwip_getsockopt+0x164>
    sock_set_errno(sock, EFAULT);
  801bae:	c7 46 10 0e 00 00 00 	movl   $0xe,0x10(%esi)
  801bb5:	c7 05 e0 b1 b3 00 0e 	movl   $0xe,0xb3b1e0
  801bbc:	00 00 00 
    return -1;
  801bbf:	b8 ff ff ff ff       	mov    $0xffffffff,%eax
  801bc4:	e9 e9 00 00 00       	jmp    801cb2 <lwip_getsockopt+0x164>
  801bc9:	83 ff 20             	cmp    $0x20,%edi
  801bcc:	74 62                	je     801c30 <lwip_getsockopt+0xe2>
  801bce:	7e 4d                	jle    801c1d <lwip_getsockopt+0xcf>
  801bd0:	81 ff 07 10 00 00    	cmp    $0x1007,%edi
  801bd6:	0f 8c 04 01 00 00    	jl     801ce0 <lwip_getsockopt+0x192>
  801bdc:	81 ff 08 10 00 00    	cmp    $0x1008,%edi
  801be2:	7e 4c                	jle    801c30 <lwip_getsockopt+0xe2>
      err = ENOPROTOOPT;
  801be4:	b8 5c 00 00 00       	mov    $0x5c,%eax
  801be9:	81 ff 0a 10 00 00    	cmp    $0x100a,%edi
  801bef:	75 a8                	jne    801b99 <lwip_getsockopt+0x4b>
        err = EINVAL;
  801bf1:	8b 45 18             	mov    0x18(%ebp),%eax
  801bf4:	83 38 04             	cmpl   $0x4,(%eax)
  801bf7:	19 c0                	sbb    %eax,%eax
  801bf9:	83 e0 16             	and    $0x16,%eax
      if ((sock->conn->type != NETCONN_UDP) ||
  801bfc:	8b 16                	mov    (%esi),%edx
  801bfe:	83 3a 20             	cmpl   $0x20,(%edx)
  801c01:	0f 85 e3 00 00 00    	jne    801cea <lwip_getsockopt+0x19c>
          ((udp_flags(sock->conn->pcb.udp) & UDP_FLAGS_UDPLITE) != 0)) {
  801c07:	8b 52 08             	mov    0x8(%edx),%edx
      if ((sock->conn->type != NETCONN_UDP) ||
  801c0a:	f6 42 10 02          	testb  $0x2,0x10(%edx)
  801c0e:	0f 85 e0 00 00 00    	jne    801cf4 <lwip_getsockopt+0x1a6>
  if (err != ERR_OK) {
  801c14:	84 c0                	test   %al,%al
  801c16:	74 42                	je     801c5a <lwip_getsockopt+0x10c>
  801c18:	e9 7c ff ff ff       	jmp    801b99 <lwip_getsockopt+0x4b>
  801c1d:	83 ff 02             	cmp    $0x2,%edi
  801c20:	74 0e                	je     801c30 <lwip_getsockopt+0xe2>
      err = ENOPROTOOPT;
  801c22:	b8 5c 00 00 00       	mov    $0x5c,%eax
  801c27:	83 ff 08             	cmp    $0x8,%edi
  801c2a:	0f 85 69 ff ff ff    	jne    801b99 <lwip_getsockopt+0x4b>
      if (*optlen < sizeof(int)) {
  801c30:	8b 45 18             	mov    0x18(%ebp),%eax
  801c33:	83 38 03             	cmpl   $0x3,(%eax)
  801c36:	77 22                	ja     801c5a <lwip_getsockopt+0x10c>
        err = EINVAL;
  801c38:	b8 16 00 00 00       	mov    $0x16,%eax
  801c3d:	e9 57 ff ff ff       	jmp    801b99 <lwip_getsockopt+0x4b>
  801c42:	8d 47 ff             	lea    -0x1(%edi),%eax
  801c45:	83 f8 01             	cmp    $0x1,%eax
  801c48:	0f 87 b0 00 00 00    	ja     801cfe <lwip_getsockopt+0x1b0>
      if (*optlen < sizeof(int)) {
  801c4e:	8b 45 18             	mov    0x18(%ebp),%eax
  801c51:	83 38 03             	cmpl   $0x3,(%eax)
  801c54:	0f 86 ae 00 00 00    	jbe    801d08 <lwip_getsockopt+0x1ba>
  data.sock = sock;
  801c5a:	89 75 cc             	mov    %esi,-0x34(%ebp)
  data.level = level;
  801c5d:	89 5d d4             	mov    %ebx,-0x2c(%ebp)
  data.optname = optname;
  801c60:	89 7d d8             	mov    %edi,-0x28(%ebp)
  data.optval = optval;
  801c63:	8b 45 14             	mov    0x14(%ebp),%eax
  801c66:	89 45 dc             	mov    %eax,-0x24(%ebp)
  data.optlen = optlen;
  801c69:	8b 45 18             	mov    0x18(%ebp),%eax
  801c6c:	89 45 e0             	mov    %eax,-0x20(%ebp)
  data.err = err;
  801c6f:	c6 45 e4 00          	movb   $0x0,-0x1c(%ebp)
  tcpip_callback(lwip_getsockopt_internal, &data);
  801c73:	83 ec 04             	sub    $0x4,%esp
  801c76:	6a 01                	push   $0x1
  801c78:	8d 45 cc             	lea    -0x34(%ebp),%eax
  801c7b:	50                   	push   %eax
  801c7c:	68 47 0b 80 00       	push   $0x800b47
  801c81:	e8 dc 05 00 00       	call   802262 <tcpip_callback_with_block>
  sys_arch_sem_wait(sock->conn->op_completed, 0);
  801c86:	83 c4 08             	add    $0x8,%esp
  801c89:	6a 00                	push   $0x0
  801c8b:	8b 06                	mov    (%esi),%eax
  801c8d:	ff 70 10             	pushl  0x10(%eax)
  801c90:	e8 39 84 00 00       	call   80a0ce <sys_arch_sem_wait>
  err = data.err;
  801c95:	0f b6 45 e4          	movzbl -0x1c(%ebp),%eax
  sock_set_errno(sock, err);
  801c99:	0f be d0             	movsbl %al,%edx
  801c9c:	89 56 10             	mov    %edx,0x10(%esi)
  801c9f:	89 15 e0 b1 b3 00    	mov    %edx,0xb3b1e0
  return err ? -1 : 0;
  801ca5:	83 c4 10             	add    $0x10,%esp
  801ca8:	84 c0                	test   %al,%al
  801caa:	0f 95 c0             	setne  %al
  801cad:	0f b6 c0             	movzbl %al,%eax
  801cb0:	f7 d8                	neg    %eax
}
  801cb2:	8d 65 f4             	lea    -0xc(%ebp),%esp
  801cb5:	5b                   	pop    %ebx
  801cb6:	5e                   	pop    %esi
  801cb7:	5f                   	pop    %edi
  801cb8:	5d                   	pop    %ebp
  801cb9:	c3                   	ret    
    if (*optlen < sizeof(int)) {
  801cba:	8b 45 18             	mov    0x18(%ebp),%eax
  801cbd:	83 38 03             	cmpl   $0x3,(%eax)
  801cc0:	76 50                	jbe    801d12 <lwip_getsockopt+0x1c4>
    if (sock->conn->type != NETCONN_TCP)
  801cc2:	8b 16                	mov    (%esi),%edx
      return 0;
  801cc4:	b8 00 00 00 00       	mov    $0x0,%eax
    if (sock->conn->type != NETCONN_TCP)
  801cc9:	83 3a 10             	cmpl   $0x10,(%edx)
  801ccc:	75 e4                	jne    801cb2 <lwip_getsockopt+0x164>
  801cce:	8d 47 ff             	lea    -0x1(%edi),%eax
  801cd1:	83 f8 01             	cmp    $0x1,%eax
  801cd4:	76 84                	jbe    801c5a <lwip_getsockopt+0x10c>
      err = ENOPROTOOPT;
  801cd6:	b8 5c 00 00 00       	mov    $0x5c,%eax
  801cdb:	e9 b9 fe ff ff       	jmp    801b99 <lwip_getsockopt+0x4b>
      err = ENOPROTOOPT;
  801ce0:	b8 5c 00 00 00       	mov    $0x5c,%eax
  801ce5:	e9 af fe ff ff       	jmp    801b99 <lwip_getsockopt+0x4b>
  801cea:	b8 61 00 00 00       	mov    $0x61,%eax
  801cef:	e9 a5 fe ff ff       	jmp    801b99 <lwip_getsockopt+0x4b>
  801cf4:	b8 61 00 00 00       	mov    $0x61,%eax
  801cf9:	e9 9b fe ff ff       	jmp    801b99 <lwip_getsockopt+0x4b>
      err = ENOPROTOOPT;
  801cfe:	b8 5c 00 00 00       	mov    $0x5c,%eax
  801d03:	e9 91 fe ff ff       	jmp    801b99 <lwip_getsockopt+0x4b>
        err = EINVAL;
  801d08:	b8 16 00 00 00       	mov    $0x16,%eax
  801d0d:	e9 87 fe ff ff       	jmp    801b99 <lwip_getsockopt+0x4b>
      err = EINVAL;
  801d12:	b8 16 00 00 00       	mov    $0x16,%eax
  801d17:	e9 7d fe ff ff       	jmp    801b99 <lwip_getsockopt+0x4b>
    return -1;
  801d1c:	b8 ff ff ff ff       	mov    $0xffffffff,%eax
  801d21:	eb 8f                	jmp    801cb2 <lwip_getsockopt+0x164>

00801d23 <lwip_setsockopt>:
{
  801d23:	55                   	push   %ebp
  801d24:	89 e5                	mov    %esp,%ebp
  801d26:	57                   	push   %edi
  801d27:	56                   	push   %esi
  801d28:	53                   	push   %ebx
  801d29:	83 ec 2c             	sub    $0x2c,%esp
  801d2c:	8b 5d 0c             	mov    0xc(%ebp),%ebx
  801d2f:	8b 7d 14             	mov    0x14(%ebp),%edi
  struct lwip_socket *sock = get_socket(s);
  801d32:	8b 45 08             	mov    0x8(%ebp),%eax
  801d35:	e8 cb e9 ff ff       	call   800705 <get_socket>
  if (!sock)
  801d3a:	85 c0                	test   %eax,%eax
  801d3c:	0f 84 69 01 00 00    	je     801eab <lwip_setsockopt+0x188>
  801d42:	89 c6                	mov    %eax,%esi
  if (NULL == optval) {
  801d44:	85 ff                	test   %edi,%edi
  801d46:	74 2c                	je     801d74 <lwip_setsockopt+0x51>
  switch (level) {
  801d48:	83 fb 06             	cmp    $0x6,%ebx
  801d4b:	0f 84 01 01 00 00    	je     801e52 <lwip_setsockopt+0x12f>
  801d51:	81 fb ff 0f 00 00    	cmp    $0xfff,%ebx
  801d57:	74 36                	je     801d8f <lwip_setsockopt+0x6c>
    err = ENOPROTOOPT;
  801d59:	b8 5c 00 00 00       	mov    $0x5c,%eax
  switch (level) {
  801d5e:	85 db                	test   %ebx,%ebx
  801d60:	74 7b                	je     801ddd <lwip_setsockopt+0xba>
    sock_set_errno(sock, err);
  801d62:	89 46 10             	mov    %eax,0x10(%esi)
  801d65:	a3 e0 b1 b3 00       	mov    %eax,0xb3b1e0
    return -1;
  801d6a:	b8 ff ff ff ff       	mov    $0xffffffff,%eax
  801d6f:	e9 d6 00 00 00       	jmp    801e4a <lwip_setsockopt+0x127>
    sock_set_errno(sock, EFAULT);
  801d74:	c7 40 10 0e 00 00 00 	movl   $0xe,0x10(%eax)
  801d7b:	c7 05 e0 b1 b3 00 0e 	movl   $0xe,0xb3b1e0
  801d82:	00 00 00 
    return -1;
  801d85:	b8 ff ff ff ff       	mov    $0xffffffff,%eax
  801d8a:	e9 bb 00 00 00       	jmp    801e4a <lwip_setsockopt+0x127>
  801d8f:	83 7d 10 20          	cmpl   $0x20,0x10(%ebp)
  801d93:	74 14                	je     801da9 <lwip_setsockopt+0x86>
  801d95:	81 7d 10 0a 10 00 00 	cmpl   $0x100a,0x10(%ebp)
  801d9c:	74 18                	je     801db6 <lwip_setsockopt+0x93>
      err = ENOPROTOOPT;
  801d9e:	b8 5c 00 00 00       	mov    $0x5c,%eax
  801da3:	83 7d 10 08          	cmpl   $0x8,0x10(%ebp)
  801da7:	75 b9                	jne    801d62 <lwip_setsockopt+0x3f>
      if (optlen < sizeof(int)) {
  801da9:	83 7d 18 03          	cmpl   $0x3,0x18(%ebp)
  801dad:	77 47                	ja     801df6 <lwip_setsockopt+0xd3>
        err = EINVAL;
  801daf:	b8 16 00 00 00       	mov    $0x16,%eax
  801db4:	eb ac                	jmp    801d62 <lwip_setsockopt+0x3f>
        err = EINVAL;
  801db6:	83 7d 18 04          	cmpl   $0x4,0x18(%ebp)
  801dba:	19 c0                	sbb    %eax,%eax
  801dbc:	83 e0 16             	and    $0x16,%eax
      if ((sock->conn->type != NETCONN_UDP) ||
  801dbf:	8b 16                	mov    (%esi),%edx
  801dc1:	83 3a 20             	cmpl   $0x20,(%edx)
  801dc4:	0f 85 af 00 00 00    	jne    801e79 <lwip_setsockopt+0x156>
          ((udp_flags(sock->conn->pcb.udp) & UDP_FLAGS_UDPLITE) != 0)) {
  801dca:	8b 52 08             	mov    0x8(%edx),%edx
      if ((sock->conn->type != NETCONN_UDP) ||
  801dcd:	f6 42 10 02          	testb  $0x2,0x10(%edx)
  801dd1:	0f 85 ac 00 00 00    	jne    801e83 <lwip_setsockopt+0x160>
  if (err != ERR_OK) {
  801dd7:	85 c0                	test   %eax,%eax
  801dd9:	74 1b                	je     801df6 <lwip_setsockopt+0xd3>
  801ddb:	eb 85                	jmp    801d62 <lwip_setsockopt+0x3f>
  801ddd:	8b 45 10             	mov    0x10(%ebp),%eax
  801de0:	83 e8 01             	sub    $0x1,%eax
  801de3:	83 f8 01             	cmp    $0x1,%eax
  801de6:	0f 87 a1 00 00 00    	ja     801e8d <lwip_setsockopt+0x16a>
      if (optlen < sizeof(int)) {
  801dec:	83 7d 18 03          	cmpl   $0x3,0x18(%ebp)
  801df0:	0f 86 a1 00 00 00    	jbe    801e97 <lwip_setsockopt+0x174>
  data.sock = sock;
  801df6:	89 75 cc             	mov    %esi,-0x34(%ebp)
  data.level = level;
  801df9:	89 5d d4             	mov    %ebx,-0x2c(%ebp)
  data.optname = optname;
  801dfc:	8b 45 10             	mov    0x10(%ebp),%eax
  801dff:	89 45 d8             	mov    %eax,-0x28(%ebp)
  data.optval = (void*)optval;
  801e02:	89 7d dc             	mov    %edi,-0x24(%ebp)
  data.optlen = &optlen;
  801e05:	8d 45 18             	lea    0x18(%ebp),%eax
  801e08:	89 45 e0             	mov    %eax,-0x20(%ebp)
  data.err = err;
  801e0b:	c6 45 e4 00          	movb   $0x0,-0x1c(%ebp)
  tcpip_callback(lwip_setsockopt_internal, &data);
  801e0f:	83 ec 04             	sub    $0x4,%esp
  801e12:	6a 01                	push   $0x1
  801e14:	8d 45 cc             	lea    -0x34(%ebp),%eax
  801e17:	50                   	push   %eax
  801e18:	68 d6 0c 80 00       	push   $0x800cd6
  801e1d:	e8 40 04 00 00       	call   802262 <tcpip_callback_with_block>
  sys_arch_sem_wait(sock->conn->op_completed, 0);
  801e22:	83 c4 08             	add    $0x8,%esp
  801e25:	6a 00                	push   $0x0
  801e27:	8b 06                	mov    (%esi),%eax
  801e29:	ff 70 10             	pushl  0x10(%eax)
  801e2c:	e8 9d 82 00 00       	call   80a0ce <sys_arch_sem_wait>
  err = data.err;
  801e31:	0f be 45 e4          	movsbl -0x1c(%ebp),%eax
  sock_set_errno(sock, err);
  801e35:	89 46 10             	mov    %eax,0x10(%esi)
  801e38:	a3 e0 b1 b3 00       	mov    %eax,0xb3b1e0
  return err ? -1 : 0;
  801e3d:	83 c4 10             	add    $0x10,%esp
  801e40:	85 c0                	test   %eax,%eax
  801e42:	0f 95 c0             	setne  %al
  801e45:	0f b6 c0             	movzbl %al,%eax
  801e48:	f7 d8                	neg    %eax
}
  801e4a:	8d 65 f4             	lea    -0xc(%ebp),%esp
  801e4d:	5b                   	pop    %ebx
  801e4e:	5e                   	pop    %esi
  801e4f:	5f                   	pop    %edi
  801e50:	5d                   	pop    %ebp
  801e51:	c3                   	ret    
    if (optlen < sizeof(int)) {
  801e52:	83 7d 18 03          	cmpl   $0x3,0x18(%ebp)
  801e56:	76 49                	jbe    801ea1 <lwip_setsockopt+0x17e>
    if (sock->conn->type != NETCONN_TCP)
  801e58:	8b 10                	mov    (%eax),%edx
      return 0;
  801e5a:	b8 00 00 00 00       	mov    $0x0,%eax
    if (sock->conn->type != NETCONN_TCP)
  801e5f:	83 3a 10             	cmpl   $0x10,(%edx)
  801e62:	75 e6                	jne    801e4a <lwip_setsockopt+0x127>
  801e64:	8b 45 10             	mov    0x10(%ebp),%eax
  801e67:	83 e8 01             	sub    $0x1,%eax
  801e6a:	83 f8 01             	cmp    $0x1,%eax
  801e6d:	76 87                	jbe    801df6 <lwip_setsockopt+0xd3>
      err = ENOPROTOOPT;
  801e6f:	b8 5c 00 00 00       	mov    $0x5c,%eax
  801e74:	e9 e9 fe ff ff       	jmp    801d62 <lwip_setsockopt+0x3f>
  801e79:	b8 61 00 00 00       	mov    $0x61,%eax
  801e7e:	e9 df fe ff ff       	jmp    801d62 <lwip_setsockopt+0x3f>
  801e83:	b8 61 00 00 00       	mov    $0x61,%eax
  801e88:	e9 d5 fe ff ff       	jmp    801d62 <lwip_setsockopt+0x3f>
        err = ENOPROTOOPT;
  801e8d:	b8 5c 00 00 00       	mov    $0x5c,%eax
  801e92:	e9 cb fe ff ff       	jmp    801d62 <lwip_setsockopt+0x3f>
        err = EINVAL;
  801e97:	b8 16 00 00 00       	mov    $0x16,%eax
  801e9c:	e9 c1 fe ff ff       	jmp    801d62 <lwip_setsockopt+0x3f>
      err = EINVAL;
  801ea1:	b8 16 00 00 00       	mov    $0x16,%eax
  801ea6:	e9 b7 fe ff ff       	jmp    801d62 <lwip_setsockopt+0x3f>
    return -1;
  801eab:	b8 ff ff ff ff       	mov    $0xffffffff,%eax
  801eb0:	eb 98                	jmp    801e4a <lwip_setsockopt+0x127>

00801eb2 <lwip_ioctl>:

int
lwip_ioctl(int s, long cmd, void *argp)
{
  801eb2:	55                   	push   %ebp
  801eb3:	89 e5                	mov    %esp,%ebp
  801eb5:	56                   	push   %esi
  801eb6:	53                   	push   %ebx
  801eb7:	8b 5d 0c             	mov    0xc(%ebp),%ebx
  801eba:	8b 75 10             	mov    0x10(%ebp),%esi
  struct lwip_socket *sock = get_socket(s);
  801ebd:	8b 45 08             	mov    0x8(%ebp),%eax
  801ec0:	e8 40 e8 ff ff       	call   800705 <get_socket>
  u16_t buflen = 0;

  if (!sock)
  801ec5:	85 c0                	test   %eax,%eax
  801ec7:	0f 84 b4 00 00 00    	je     801f81 <lwip_ioctl+0xcf>
    return -1;

  switch (cmd) {
  801ecd:	81 fb 7e 66 04 80    	cmp    $0x8004667e,%ebx
  801ed3:	74 5d                	je     801f32 <lwip_ioctl+0x80>
  801ed5:	81 fb 7f 66 04 40    	cmp    $0x4004667f,%ebx
  801edb:	0f 85 88 00 00 00    	jne    801f69 <lwip_ioctl+0xb7>
  case FIONREAD:
    if (!argp) {
  801ee1:	85 f6                	test   %esi,%esi
  801ee3:	74 35                	je     801f1a <lwip_ioctl+0x68>
      sock_set_errno(sock, EINVAL);
      return -1;
    }

    SYS_ARCH_GET(sock->conn->recv_avail, *((u16_t*)argp));
  801ee5:	8b 10                	mov    (%eax),%edx
  801ee7:	0f b7 52 20          	movzwl 0x20(%edx),%edx
  801eeb:	66 89 16             	mov    %dx,(%esi)

    /* Check if there is data left from the last recv operation. /maq 041215 */
    if (sock->lastdata) {
  801eee:	8b 48 04             	mov    0x4(%eax),%ecx
  801ef1:	85 c9                	test   %ecx,%ecx
  801ef3:	74 0d                	je     801f02 <lwip_ioctl+0x50>
      buflen = netbuf_len(sock->lastdata);
  801ef5:	8b 09                	mov    (%ecx),%ecx
      buflen -= sock->lastoffset;

      *((u16_t*)argp) += buflen;
  801ef7:	66 2b 50 08          	sub    0x8(%eax),%dx
  801efb:	66 03 51 08          	add    0x8(%ecx),%dx
  801eff:	66 89 16             	mov    %dx,(%esi)
    }

    LWIP_DEBUGF(SOCKETS_DEBUG, ("lwip_ioctl(%d, FIONREAD, %p) = %u\n", s, argp, *((u16_t*)argp)));
    sock_set_errno(sock, 0);
  801f02:	c7 40 10 00 00 00 00 	movl   $0x0,0x10(%eax)
  801f09:	c7 05 e0 b1 b3 00 00 	movl   $0x0,0xb3b1e0
  801f10:	00 00 00 
    return 0;
  801f13:	b8 00 00 00 00       	mov    $0x0,%eax
  801f18:	eb 4b                	jmp    801f65 <lwip_ioctl+0xb3>
      sock_set_errno(sock, EINVAL);
  801f1a:	c7 40 10 16 00 00 00 	movl   $0x16,0x10(%eax)
  801f21:	c7 05 e0 b1 b3 00 16 	movl   $0x16,0xb3b1e0
  801f28:	00 00 00 
      return -1;
  801f2b:	b8 ff ff ff ff       	mov    $0xffffffff,%eax
  801f30:	eb 33                	jmp    801f65 <lwip_ioctl+0xb3>

  case FIONBIO:
    if (argp && *(u32_t*)argp)
  801f32:	85 f6                	test   %esi,%esi
  801f34:	74 0e                	je     801f44 <lwip_ioctl+0x92>
  801f36:	83 3e 00             	cmpl   $0x0,(%esi)
  801f39:	74 09                	je     801f44 <lwip_ioctl+0x92>
      sock->flags |= O_NONBLOCK;
  801f3b:	0f b7 50 0e          	movzwl 0xe(%eax),%edx
  801f3f:	80 ce 08             	or     $0x8,%dh
  801f42:	eb 07                	jmp    801f4b <lwip_ioctl+0x99>
    else
      sock->flags &= ~O_NONBLOCK;
  801f44:	0f b7 50 0e          	movzwl 0xe(%eax),%edx
  801f48:	80 e6 f7             	and    $0xf7,%dh
  801f4b:	66 89 50 0e          	mov    %dx,0xe(%eax)
    LWIP_DEBUGF(SOCKETS_DEBUG, ("lwip_ioctl(%d, FIONBIO, %d)\n", s, !!(sock->flags & O_NONBLOCK)));
    sock_set_errno(sock, 0);
  801f4f:	c7 40 10 00 00 00 00 	movl   $0x0,0x10(%eax)
  801f56:	c7 05 e0 b1 b3 00 00 	movl   $0x0,0xb3b1e0
  801f5d:	00 00 00 
    return 0;
  801f60:	b8 00 00 00 00       	mov    $0x0,%eax
  default:
    LWIP_DEBUGF(SOCKETS_DEBUG, ("lwip_ioctl(%d, UNIMPL: 0x%lx, %p)\n", s, cmd, argp));
    sock_set_errno(sock, ENOSYS); /* not yet implemented */
    return -1;
  } /* switch (cmd) */
}
  801f65:	5b                   	pop    %ebx
  801f66:	5e                   	pop    %esi
  801f67:	5d                   	pop    %ebp
  801f68:	c3                   	ret    
    sock_set_errno(sock, ENOSYS); /* not yet implemented */
  801f69:	c7 40 10 26 00 00 00 	movl   $0x26,0x10(%eax)
  801f70:	c7 05 e0 b1 b3 00 26 	movl   $0x26,0xb3b1e0
  801f77:	00 00 00 
    return -1;
  801f7a:	b8 ff ff ff ff       	mov    $0xffffffff,%eax
  801f7f:	eb e4                	jmp    801f65 <lwip_ioctl+0xb3>
    return -1;
  801f81:	b8 ff ff ff ff       	mov    $0xffffffff,%eax
  801f86:	eb dd                	jmp    801f65 <lwip_ioctl+0xb3>

00801f88 <tcpip_tcp_timer>:
 *
 * @param arg unused argument
 */
static void
tcpip_tcp_timer(void *arg)
{
  801f88:	55                   	push   %ebp
  801f89:	89 e5                	mov    %esp,%ebp
  801f8b:	83 ec 08             	sub    $0x8,%esp
  LWIP_UNUSED_ARG(arg);

  /* call TCP timer handler */
  tcp_tmr();
  801f8e:	e8 2d 41 00 00       	call   8060c0 <tcp_tmr>
  /* timer still needed? */
  if (tcp_active_pcbs || tcp_tw_pcbs) {
  801f93:	83 3d 3c b2 b3 00 00 	cmpl   $0x0,0xb3b23c
  801f9a:	74 19                	je     801fb5 <tcpip_tcp_timer+0x2d>
    /* restart timer */
    sys_timeout(TCP_TMR_INTERVAL, tcpip_tcp_timer, NULL);
  801f9c:	83 ec 04             	sub    $0x4,%esp
  801f9f:	6a 00                	push   $0x0
  801fa1:	68 88 1f 80 00       	push   $0x801f88
  801fa6:	68 fa 00 00 00       	push   $0xfa
  801fab:	e8 9e 31 00 00       	call   80514e <sys_timeout>
  801fb0:	83 c4 10             	add    $0x10,%esp
  } else {
    /* disable timer */
    tcpip_tcp_timer_active = 0;
  }
}
  801fb3:	c9                   	leave  
  801fb4:	c3                   	ret    
  if (tcp_active_pcbs || tcp_tw_pcbs) {
  801fb5:	83 3d 50 b2 b3 00 00 	cmpl   $0x0,0xb3b250
  801fbc:	75 de                	jne    801f9c <tcpip_tcp_timer+0x14>
    tcpip_tcp_timer_active = 0;
  801fbe:	c7 05 e0 52 81 00 00 	movl   $0x0,0x8152e0
  801fc5:	00 00 00 
}
  801fc8:	eb e9                	jmp    801fb3 <tcpip_tcp_timer+0x2b>

00801fca <tcpip_thread>:
 *
 * @param arg unused argument
 */
static void
tcpip_thread(void *arg)
{
  801fca:	55                   	push   %ebp
  801fcb:	89 e5                	mov    %esp,%ebp
  801fcd:	53                   	push   %ebx
  801fce:	83 ec 18             	sub    $0x18,%esp
  struct tcpip_msg *msg;
  LWIP_UNUSED_ARG(arg);

#if IP_REASSEMBLY
  sys_timeout(IP_TMR_INTERVAL, ip_reass_timer, NULL);
  801fd1:	6a 00                	push   $0x0
  801fd3:	68 7a 21 80 00       	push   $0x80217a
  801fd8:	68 e8 03 00 00       	push   $0x3e8
  801fdd:	e8 6c 31 00 00       	call   80514e <sys_timeout>
#endif /* IP_REASSEMBLY */
#if LWIP_ARP
  sys_timeout(ARP_TMR_INTERVAL, arp_timer, NULL);
  801fe2:	83 c4 0c             	add    $0xc,%esp
  801fe5:	6a 00                	push   $0x0
  801fe7:	68 56 21 80 00       	push   $0x802156
  801fec:	68 88 13 00 00       	push   $0x1388
  801ff1:	e8 58 31 00 00       	call   80514e <sys_timeout>
#endif /* LWIP_ARP */
#if LWIP_DHCP
  sys_timeout(DHCP_COARSE_TIMER_MSECS, dhcp_timer_coarse, NULL);
  801ff6:	83 c4 0c             	add    $0xc,%esp
  801ff9:	6a 00                	push   $0x0
  801ffb:	68 32 21 80 00       	push   $0x802132
  802000:	68 60 ea 00 00       	push   $0xea60
  802005:	e8 44 31 00 00       	call   80514e <sys_timeout>
  sys_timeout(DHCP_FINE_TIMER_MSECS, dhcp_timer_fine, NULL);
  80200a:	83 c4 0c             	add    $0xc,%esp
  80200d:	6a 00                	push   $0x0
  80200f:	68 0e 21 80 00       	push   $0x80210e
  802014:	68 f4 01 00 00       	push   $0x1f4
  802019:	e8 30 31 00 00       	call   80514e <sys_timeout>
#endif /* LWIP_IGMP */
#if LWIP_DNS
  sys_timeout(DNS_TMR_INTERVAL, dns_timer, NULL);
#endif /* LWIP_DNS */

  if (tcpip_init_done != NULL) {
  80201e:	a1 e8 52 81 00       	mov    0x8152e8,%eax
  802023:	83 c4 10             	add    $0x10,%esp
  802026:	85 c0                	test   %eax,%eax
  802028:	74 0e                	je     802038 <tcpip_thread+0x6e>
    tcpip_init_done(tcpip_init_done_arg);
  80202a:	83 ec 0c             	sub    $0xc,%esp
  80202d:	ff 35 e4 52 81 00    	pushl  0x8152e4
  802033:	ff d0                	call   *%eax
  802035:	83 c4 10             	add    $0x10,%esp
  }

  LOCK_TCPIP_CORE();
  while (1) {                          /* MAIN Loop */
    sys_mbox_fetch(mbox, (void *)&msg);
  802038:	8d 5d f4             	lea    -0xc(%ebp),%ebx
  80203b:	eb 0f                	jmp    80204c <tcpip_thread+0x82>
    switch (msg->type) {
#if LWIP_NETCONN
    case TCPIP_MSG_API:
      LWIP_DEBUGF(TCPIP_DEBUG, ("tcpip_thread: API message %p\n", (void *)msg));
      msg->msg.apimsg->function(&(msg->msg.apimsg->msg));
  80203d:	8b 42 08             	mov    0x8(%edx),%eax
  802040:	83 ec 0c             	sub    $0xc,%esp
  802043:	8d 50 04             	lea    0x4(%eax),%edx
  802046:	52                   	push   %edx
  802047:	ff 10                	call   *(%eax)
      break;
  802049:	83 c4 10             	add    $0x10,%esp
    sys_mbox_fetch(mbox, (void *)&msg);
  80204c:	83 ec 08             	sub    $0x8,%esp
  80204f:	53                   	push   %ebx
  802050:	ff 35 00 40 81 00    	pushl  0x814000
  802056:	e8 d3 2f 00 00       	call   80502e <sys_mbox_fetch>
    switch (msg->type) {
  80205b:	8b 55 f4             	mov    -0xc(%ebp),%edx
  80205e:	8b 02                	mov    (%edx),%eax
  802060:	83 c4 10             	add    $0x10,%esp
  802063:	83 f8 01             	cmp    $0x1,%eax
  802066:	74 3a                	je     8020a2 <tcpip_thread+0xd8>
  802068:	85 c0                	test   %eax,%eax
  80206a:	74 d1                	je     80203d <tcpip_thread+0x73>
  80206c:	83 f8 02             	cmp    $0x2,%eax
  80206f:	74 6c                	je     8020dd <tcpip_thread+0x113>
  802071:	83 f8 03             	cmp    $0x3,%eax
  802074:	75 d6                	jne    80204c <tcpip_thread+0x82>
      break;

    case TCPIP_MSG_TIMEOUT:
      LWIP_DEBUGF(TCPIP_DEBUG, ("tcpip_thread: TIMEOUT %p\n", (void *)msg));

      if(msg->msg.tmo.msecs != 0xffffffff)
  802076:	8b 42 08             	mov    0x8(%edx),%eax
  802079:	83 f8 ff             	cmp    $0xffffffff,%eax
  80207c:	74 7d                	je     8020fb <tcpip_thread+0x131>
        sys_timeout (msg->msg.tmo.msecs, msg->msg.tmo.h, msg->msg.tmo.arg);
  80207e:	83 ec 04             	sub    $0x4,%esp
  802081:	ff 72 10             	pushl  0x10(%edx)
  802084:	ff 72 0c             	pushl  0xc(%edx)
  802087:	50                   	push   %eax
  802088:	e8 c1 30 00 00       	call   80514e <sys_timeout>
  80208d:	83 c4 10             	add    $0x10,%esp
      else
        sys_untimeout (msg->msg.tmo.h, msg->msg.tmo.arg);
      memp_free(MEMP_TCPIP_MSG_API, msg);
  802090:	83 ec 08             	sub    $0x8,%esp
  802093:	ff 75 f4             	pushl  -0xc(%ebp)
  802096:	6a 08                	push   $0x8
  802098:	e8 f6 23 00 00       	call   804493 <memp_free>
      break;
  80209d:	83 c4 10             	add    $0x10,%esp
  8020a0:	eb aa                	jmp    80204c <tcpip_thread+0x82>
      if (msg->msg.inp.netif->flags & NETIF_FLAG_ETHARP) {
  8020a2:	8b 42 0c             	mov    0xc(%edx),%eax
  8020a5:	f6 40 2e 20          	testb  $0x20,0x2e(%eax)
  8020a9:	74 21                	je     8020cc <tcpip_thread+0x102>
        ethernet_input(msg->msg.inp.p, msg->msg.inp.netif);
  8020ab:	83 ec 08             	sub    $0x8,%esp
  8020ae:	50                   	push   %eax
  8020af:	ff 72 08             	pushl  0x8(%edx)
  8020b2:	e8 40 7b 00 00       	call   809bf7 <ethernet_input>
  8020b7:	83 c4 10             	add    $0x10,%esp
      memp_free(MEMP_TCPIP_MSG_INPKT, msg);
  8020ba:	83 ec 08             	sub    $0x8,%esp
  8020bd:	ff 75 f4             	pushl  -0xc(%ebp)
  8020c0:	6a 09                	push   $0x9
  8020c2:	e8 cc 23 00 00       	call   804493 <memp_free>
      break;
  8020c7:	83 c4 10             	add    $0x10,%esp
  8020ca:	eb 80                	jmp    80204c <tcpip_thread+0x82>
      { ip_input(msg->msg.inp.p, msg->msg.inp.netif);
  8020cc:	83 ec 08             	sub    $0x8,%esp
  8020cf:	50                   	push   %eax
  8020d0:	ff 72 08             	pushl  0x8(%edx)
  8020d3:	e8 26 44 00 00       	call   8064fe <ip_input>
  8020d8:	83 c4 10             	add    $0x10,%esp
  8020db:	eb dd                	jmp    8020ba <tcpip_thread+0xf0>
      msg->msg.cb.f(msg->msg.cb.ctx);
  8020dd:	83 ec 0c             	sub    $0xc,%esp
  8020e0:	ff 72 0c             	pushl  0xc(%edx)
  8020e3:	ff 52 08             	call   *0x8(%edx)
      memp_free(MEMP_TCPIP_MSG_API, msg);
  8020e6:	83 c4 08             	add    $0x8,%esp
  8020e9:	ff 75 f4             	pushl  -0xc(%ebp)
  8020ec:	6a 08                	push   $0x8
  8020ee:	e8 a0 23 00 00       	call   804493 <memp_free>
      break;
  8020f3:	83 c4 10             	add    $0x10,%esp
  8020f6:	e9 51 ff ff ff       	jmp    80204c <tcpip_thread+0x82>
        sys_untimeout (msg->msg.tmo.h, msg->msg.tmo.arg);
  8020fb:	83 ec 08             	sub    $0x8,%esp
  8020fe:	ff 72 10             	pushl  0x10(%edx)
  802101:	ff 72 0c             	pushl  0xc(%edx)
  802104:	e8 08 31 00 00       	call   805211 <sys_untimeout>
  802109:	83 c4 10             	add    $0x10,%esp
  80210c:	eb 82                	jmp    802090 <tcpip_thread+0xc6>

0080210e <dhcp_timer_fine>:
{
  80210e:	55                   	push   %ebp
  80210f:	89 e5                	mov    %esp,%ebp
  802111:	83 ec 08             	sub    $0x8,%esp
  dhcp_fine_tmr();
  802114:	e8 4a 1b 00 00       	call   803c63 <dhcp_fine_tmr>
  sys_timeout(DHCP_FINE_TIMER_MSECS, dhcp_timer_fine, NULL);
  802119:	83 ec 04             	sub    $0x4,%esp
  80211c:	6a 00                	push   $0x0
  80211e:	68 0e 21 80 00       	push   $0x80210e
  802123:	68 f4 01 00 00       	push   $0x1f4
  802128:	e8 21 30 00 00       	call   80514e <sys_timeout>
}
  80212d:	83 c4 10             	add    $0x10,%esp
  802130:	c9                   	leave  
  802131:	c3                   	ret    

00802132 <dhcp_timer_coarse>:
{
  802132:	55                   	push   %ebp
  802133:	89 e5                	mov    %esp,%ebp
  802135:	83 ec 08             	sub    $0x8,%esp
  dhcp_coarse_tmr();
  802138:	e8 5a 19 00 00       	call   803a97 <dhcp_coarse_tmr>
  sys_timeout(DHCP_COARSE_TIMER_MSECS, dhcp_timer_coarse, NULL);
  80213d:	83 ec 04             	sub    $0x4,%esp
  802140:	6a 00                	push   $0x0
  802142:	68 32 21 80 00       	push   $0x802132
  802147:	68 60 ea 00 00       	push   $0xea60
  80214c:	e8 fd 2f 00 00       	call   80514e <sys_timeout>
}
  802151:	83 c4 10             	add    $0x10,%esp
  802154:	c9                   	leave  
  802155:	c3                   	ret    

00802156 <arp_timer>:
{
  802156:	55                   	push   %ebp
  802157:	89 e5                	mov    %esp,%ebp
  802159:	83 ec 08             	sub    $0x8,%esp
  etharp_tmr();
  80215c:	e8 66 73 00 00       	call   8094c7 <etharp_tmr>
  sys_timeout(ARP_TMR_INTERVAL, arp_timer, NULL);
  802161:	83 ec 04             	sub    $0x4,%esp
  802164:	6a 00                	push   $0x0
  802166:	68 56 21 80 00       	push   $0x802156
  80216b:	68 88 13 00 00       	push   $0x1388
  802170:	e8 d9 2f 00 00       	call   80514e <sys_timeout>
}
  802175:	83 c4 10             	add    $0x10,%esp
  802178:	c9                   	leave  
  802179:	c3                   	ret    

0080217a <ip_reass_timer>:
{
  80217a:	55                   	push   %ebp
  80217b:	89 e5                	mov    %esp,%ebp
  80217d:	83 ec 08             	sub    $0x8,%esp
  ip_reass_tmr();
  802180:	e8 74 4a 00 00       	call   806bf9 <ip_reass_tmr>
  sys_timeout(IP_TMR_INTERVAL, ip_reass_timer, NULL);
  802185:	83 ec 04             	sub    $0x4,%esp
  802188:	6a 00                	push   $0x0
  80218a:	68 7a 21 80 00       	push   $0x80217a
  80218f:	68 e8 03 00 00       	push   $0x3e8
  802194:	e8 b5 2f 00 00       	call   80514e <sys_timeout>
}
  802199:	83 c4 10             	add    $0x10,%esp
  80219c:	c9                   	leave  
  80219d:	c3                   	ret    

0080219e <pbuf_free_int>:
 *
 * @param p The pbuf (chain) to be dereferenced.
 */
static void
pbuf_free_int(void *p)
{
  80219e:	55                   	push   %ebp
  80219f:	89 e5                	mov    %esp,%ebp
  8021a1:	83 ec 14             	sub    $0x14,%esp
  struct pbuf *q = p;
  pbuf_free(q);
  8021a4:	ff 75 08             	pushl  0x8(%ebp)
  8021a7:	e8 37 26 00 00       	call   8047e3 <pbuf_free>
}
  8021ac:	83 c4 10             	add    $0x10,%esp
  8021af:	c9                   	leave  
  8021b0:	c3                   	ret    

008021b1 <tcp_timer_needed>:
  if (!tcpip_tcp_timer_active && (tcp_active_pcbs || tcp_tw_pcbs)) {
  8021b1:	83 3d e0 52 81 00 00 	cmpl   $0x0,0x8152e0
  8021b8:	75 38                	jne    8021f2 <tcp_timer_needed+0x41>
  8021ba:	83 3d 3c b2 b3 00 00 	cmpl   $0x0,0xb3b23c
  8021c1:	74 26                	je     8021e9 <tcp_timer_needed+0x38>
{
  8021c3:	55                   	push   %ebp
  8021c4:	89 e5                	mov    %esp,%ebp
  8021c6:	83 ec 0c             	sub    $0xc,%esp
    tcpip_tcp_timer_active = 1;
  8021c9:	c7 05 e0 52 81 00 01 	movl   $0x1,0x8152e0
  8021d0:	00 00 00 
    sys_timeout(TCP_TMR_INTERVAL, tcpip_tcp_timer, NULL);
  8021d3:	6a 00                	push   $0x0
  8021d5:	68 88 1f 80 00       	push   $0x801f88
  8021da:	68 fa 00 00 00       	push   $0xfa
  8021df:	e8 6a 2f 00 00       	call   80514e <sys_timeout>
  8021e4:	83 c4 10             	add    $0x10,%esp
}
  8021e7:	c9                   	leave  
  8021e8:	c3                   	ret    
  if (!tcpip_tcp_timer_active && (tcp_active_pcbs || tcp_tw_pcbs)) {
  8021e9:	83 3d 50 b2 b3 00 00 	cmpl   $0x0,0xb3b250
  8021f0:	75 d1                	jne    8021c3 <tcp_timer_needed+0x12>
  8021f2:	c3                   	ret    

008021f3 <tcpip_input>:
  if (mbox != SYS_MBOX_NULL) {
  8021f3:	83 3d 00 40 81 00 ff 	cmpl   $0xffffffff,0x814000
  8021fa:	74 59                	je     802255 <tcpip_input+0x62>
{
  8021fc:	55                   	push   %ebp
  8021fd:	89 e5                	mov    %esp,%ebp
  8021ff:	53                   	push   %ebx
  802200:	83 ec 10             	sub    $0x10,%esp
    msg = memp_malloc(MEMP_TCPIP_MSG_INPKT);
  802203:	6a 09                	push   $0x9
  802205:	e8 33 22 00 00       	call   80443d <memp_malloc>
  80220a:	89 c3                	mov    %eax,%ebx
    if (msg == NULL) {
  80220c:	83 c4 10             	add    $0x10,%esp
  80220f:	85 c0                	test   %eax,%eax
  802211:	74 48                	je     80225b <tcpip_input+0x68>
    msg->type = TCPIP_MSG_INPKT;
  802213:	c7 00 01 00 00 00    	movl   $0x1,(%eax)
    msg->msg.inp.p = p;
  802219:	8b 45 08             	mov    0x8(%ebp),%eax
  80221c:	89 43 08             	mov    %eax,0x8(%ebx)
    msg->msg.inp.netif = inp;
  80221f:	8b 45 0c             	mov    0xc(%ebp),%eax
  802222:	89 43 0c             	mov    %eax,0xc(%ebx)
    if (sys_mbox_trypost(mbox, msg) != ERR_OK) {
  802225:	83 ec 08             	sub    $0x8,%esp
  802228:	53                   	push   %ebx
  802229:	ff 35 00 40 81 00    	pushl  0x814000
  80222f:	e8 aa 7f 00 00       	call   80a1de <sys_mbox_trypost>
  802234:	83 c4 10             	add    $0x10,%esp
  802237:	84 c0                	test   %al,%al
  802239:	75 05                	jne    802240 <tcpip_input+0x4d>
}
  80223b:	8b 5d fc             	mov    -0x4(%ebp),%ebx
  80223e:	c9                   	leave  
  80223f:	c3                   	ret    
      memp_free(MEMP_TCPIP_MSG_INPKT, msg);
  802240:	83 ec 08             	sub    $0x8,%esp
  802243:	53                   	push   %ebx
  802244:	6a 09                	push   $0x9
  802246:	e8 48 22 00 00       	call   804493 <memp_free>
      return ERR_MEM;
  80224b:	83 c4 10             	add    $0x10,%esp
  80224e:	b8 ff ff ff ff       	mov    $0xffffffff,%eax
  802253:	eb e6                	jmp    80223b <tcpip_input+0x48>
  return ERR_VAL;
  802255:	b8 f7 ff ff ff       	mov    $0xfffffff7,%eax
}
  80225a:	c3                   	ret    
      return ERR_MEM;
  80225b:	b8 ff ff ff ff       	mov    $0xffffffff,%eax
  802260:	eb d9                	jmp    80223b <tcpip_input+0x48>

00802262 <tcpip_callback_with_block>:
{
  802262:	55                   	push   %ebp
  802263:	89 e5                	mov    %esp,%ebp
  802265:	56                   	push   %esi
  802266:	53                   	push   %ebx
  802267:	8b 75 10             	mov    0x10(%ebp),%esi
  if (mbox != SYS_MBOX_NULL) {
  80226a:	83 3d 00 40 81 00 ff 	cmpl   $0xffffffff,0x814000
  802271:	74 76                	je     8022e9 <tcpip_callback_with_block+0x87>
    msg = memp_malloc(MEMP_TCPIP_MSG_API);
  802273:	83 ec 0c             	sub    $0xc,%esp
  802276:	6a 08                	push   $0x8
  802278:	e8 c0 21 00 00       	call   80443d <memp_malloc>
  80227d:	89 c3                	mov    %eax,%ebx
    if (msg == NULL) {
  80227f:	83 c4 10             	add    $0x10,%esp
  802282:	85 c0                	test   %eax,%eax
  802284:	74 6a                	je     8022f0 <tcpip_callback_with_block+0x8e>
    msg->type = TCPIP_MSG_CALLBACK;
  802286:	c7 00 02 00 00 00    	movl   $0x2,(%eax)
    msg->msg.cb.f = f;
  80228c:	8b 45 08             	mov    0x8(%ebp),%eax
  80228f:	89 43 08             	mov    %eax,0x8(%ebx)
    msg->msg.cb.ctx = ctx;
  802292:	8b 45 0c             	mov    0xc(%ebp),%eax
  802295:	89 43 0c             	mov    %eax,0xc(%ebx)
    if (block) {
  802298:	89 f0                	mov    %esi,%eax
  80229a:	84 c0                	test   %al,%al
  80229c:	75 1d                	jne    8022bb <tcpip_callback_with_block+0x59>
      if (sys_mbox_trypost(mbox, msg) != ERR_OK) {
  80229e:	83 ec 08             	sub    $0x8,%esp
  8022a1:	53                   	push   %ebx
  8022a2:	ff 35 00 40 81 00    	pushl  0x814000
  8022a8:	e8 31 7f 00 00       	call   80a1de <sys_mbox_trypost>
  8022ad:	83 c4 10             	add    $0x10,%esp
  8022b0:	84 c0                	test   %al,%al
  8022b2:	75 20                	jne    8022d4 <tcpip_callback_with_block+0x72>
}
  8022b4:	8d 65 f8             	lea    -0x8(%ebp),%esp
  8022b7:	5b                   	pop    %ebx
  8022b8:	5e                   	pop    %esi
  8022b9:	5d                   	pop    %ebp
  8022ba:	c3                   	ret    
      sys_mbox_post(mbox, msg);
  8022bb:	83 ec 08             	sub    $0x8,%esp
  8022be:	53                   	push   %ebx
  8022bf:	ff 35 00 40 81 00    	pushl  0x814000
  8022c5:	e8 d9 7f 00 00       	call   80a2a3 <sys_mbox_post>
  8022ca:	83 c4 10             	add    $0x10,%esp
    return ERR_OK;
  8022cd:	b8 00 00 00 00       	mov    $0x0,%eax
  8022d2:	eb e0                	jmp    8022b4 <tcpip_callback_with_block+0x52>
        memp_free(MEMP_TCPIP_MSG_API, msg);
  8022d4:	83 ec 08             	sub    $0x8,%esp
  8022d7:	53                   	push   %ebx
  8022d8:	6a 08                	push   $0x8
  8022da:	e8 b4 21 00 00       	call   804493 <memp_free>
        return ERR_MEM;
  8022df:	83 c4 10             	add    $0x10,%esp
  8022e2:	b8 ff ff ff ff       	mov    $0xffffffff,%eax
  8022e7:	eb cb                	jmp    8022b4 <tcpip_callback_with_block+0x52>
  return ERR_VAL;
  8022e9:	b8 f7 ff ff ff       	mov    $0xfffffff7,%eax
  8022ee:	eb c4                	jmp    8022b4 <tcpip_callback_with_block+0x52>
      return ERR_MEM;
  8022f0:	b8 ff ff ff ff       	mov    $0xffffffff,%eax
  8022f5:	eb bd                	jmp    8022b4 <tcpip_callback_with_block+0x52>

008022f7 <tcpip_timeout>:
  if (mbox != SYS_MBOX_NULL) {
  8022f7:	83 3d 00 40 81 00 ff 	cmpl   $0xffffffff,0x814000
  8022fe:	74 45                	je     802345 <tcpip_timeout+0x4e>
{
  802300:	55                   	push   %ebp
  802301:	89 e5                	mov    %esp,%ebp
  802303:	83 ec 14             	sub    $0x14,%esp
    msg = memp_malloc(MEMP_TCPIP_MSG_API);
  802306:	6a 08                	push   $0x8
  802308:	e8 30 21 00 00       	call   80443d <memp_malloc>
    if (msg == NULL) {
  80230d:	83 c4 10             	add    $0x10,%esp
  802310:	85 c0                	test   %eax,%eax
  802312:	74 37                	je     80234b <tcpip_timeout+0x54>
    msg->type = TCPIP_MSG_TIMEOUT;
  802314:	c7 00 03 00 00 00    	movl   $0x3,(%eax)
    msg->msg.tmo.msecs = msecs;
  80231a:	8b 55 08             	mov    0x8(%ebp),%edx
  80231d:	89 50 08             	mov    %edx,0x8(%eax)
    msg->msg.tmo.h = h;
  802320:	8b 55 0c             	mov    0xc(%ebp),%edx
  802323:	89 50 0c             	mov    %edx,0xc(%eax)
    msg->msg.tmo.arg = arg;
  802326:	8b 55 10             	mov    0x10(%ebp),%edx
  802329:	89 50 10             	mov    %edx,0x10(%eax)
    sys_mbox_post(mbox, msg);
  80232c:	83 ec 08             	sub    $0x8,%esp
  80232f:	50                   	push   %eax
  802330:	ff 35 00 40 81 00    	pushl  0x814000
  802336:	e8 68 7f 00 00       	call   80a2a3 <sys_mbox_post>
    return ERR_OK;
  80233b:	83 c4 10             	add    $0x10,%esp
  80233e:	b8 00 00 00 00       	mov    $0x0,%eax
}
  802343:	c9                   	leave  
  802344:	c3                   	ret    
  return ERR_VAL;
  802345:	b8 f7 ff ff ff       	mov    $0xfffffff7,%eax
}
  80234a:	c3                   	ret    
      return ERR_MEM;
  80234b:	b8 ff ff ff ff       	mov    $0xffffffff,%eax
  802350:	eb f1                	jmp    802343 <tcpip_timeout+0x4c>

00802352 <tcpip_apimsg>:
{
  802352:	55                   	push   %ebp
  802353:	89 e5                	mov    %esp,%ebp
  802355:	53                   	push   %ebx
  802356:	83 ec 24             	sub    $0x24,%esp
  802359:	8b 5d 08             	mov    0x8(%ebp),%ebx
  if (mbox != SYS_MBOX_NULL) {
  80235c:	a1 00 40 81 00       	mov    0x814000,%eax
  802361:	83 f8 ff             	cmp    $0xffffffff,%eax
  802364:	74 34                	je     80239a <tcpip_apimsg+0x48>
    msg.type = TCPIP_MSG_API;
  802366:	c7 45 e4 00 00 00 00 	movl   $0x0,-0x1c(%ebp)
    msg.msg.apimsg = apimsg;
  80236d:	89 5d ec             	mov    %ebx,-0x14(%ebp)
    sys_mbox_post(mbox, &msg);
  802370:	83 ec 08             	sub    $0x8,%esp
  802373:	8d 55 e4             	lea    -0x1c(%ebp),%edx
  802376:	52                   	push   %edx
  802377:	50                   	push   %eax
  802378:	e8 26 7f 00 00       	call   80a2a3 <sys_mbox_post>
    sys_arch_sem_wait(apimsg->msg.conn->op_completed, 0);
  80237d:	83 c4 08             	add    $0x8,%esp
  802380:	6a 00                	push   $0x0
  802382:	8b 43 04             	mov    0x4(%ebx),%eax
  802385:	ff 70 10             	pushl  0x10(%eax)
  802388:	e8 41 7d 00 00       	call   80a0ce <sys_arch_sem_wait>
    return ERR_OK;
  80238d:	83 c4 10             	add    $0x10,%esp
  802390:	b8 00 00 00 00       	mov    $0x0,%eax
}
  802395:	8b 5d fc             	mov    -0x4(%ebp),%ebx
  802398:	c9                   	leave  
  802399:	c3                   	ret    
  return ERR_VAL;
  80239a:	b8 f7 ff ff ff       	mov    $0xfffffff7,%eax
  80239f:	eb f4                	jmp    802395 <tcpip_apimsg+0x43>

008023a1 <tcpip_init>:
{
  8023a1:	55                   	push   %ebp
  8023a2:	89 e5                	mov    %esp,%ebp
  8023a4:	83 ec 08             	sub    $0x8,%esp
  lwip_init();
  8023a7:	e8 71 03 00 00       	call   80271d <lwip_init>
  tcpip_init_done = initfunc;
  8023ac:	8b 45 08             	mov    0x8(%ebp),%eax
  8023af:	a3 e8 52 81 00       	mov    %eax,0x8152e8
  tcpip_init_done_arg = arg;
  8023b4:	8b 45 0c             	mov    0xc(%ebp),%eax
  8023b7:	a3 e4 52 81 00       	mov    %eax,0x8152e4
  mbox = sys_mbox_new(TCPIP_MBOX_SIZE);
  8023bc:	83 ec 0c             	sub    $0xc,%esp
  8023bf:	6a 00                	push   $0x0
  8023c1:	e8 84 7b 00 00       	call   809f4a <sys_mbox_new>
  8023c6:	a3 00 40 81 00       	mov    %eax,0x814000
  sys_thread_new(TCPIP_THREAD_NAME, tcpip_thread, NULL, TCPIP_THREAD_STACKSIZE, TCPIP_THREAD_PRIO);
  8023cb:	c7 04 24 01 00 00 00 	movl   $0x1,(%esp)
  8023d2:	6a 00                	push   $0x0
  8023d4:	6a 00                	push   $0x0
  8023d6:	68 ca 1f 80 00       	push   $0x801fca
  8023db:	68 bc 11 81 00       	push   $0x8111bc
  8023e0:	e8 f1 7f 00 00       	call   80a3d6 <sys_thread_new>
}
  8023e5:	83 c4 20             	add    $0x20,%esp
  8023e8:	c9                   	leave  
  8023e9:	c3                   	ret    

008023ea <pbuf_free_callback>:
 * @param p The pbuf (chain) to be dereferenced.
 * @return ERR_OK if callback could be enqueued, an err_t if not
 */
err_t
pbuf_free_callback(struct pbuf *p)
{
  8023ea:	55                   	push   %ebp
  8023eb:	89 e5                	mov    %esp,%ebp
  8023ed:	83 ec 0c             	sub    $0xc,%esp
  return tcpip_callback_with_block(pbuf_free_int, p, 0);
  8023f0:	6a 00                	push   $0x0
  8023f2:	ff 75 08             	pushl  0x8(%ebp)
  8023f5:	68 9e 21 80 00       	push   $0x80219e
  8023fa:	e8 63 fe ff ff       	call   802262 <tcpip_callback_with_block>
}
  8023ff:	c9                   	leave  
  802400:	c3                   	ret    

00802401 <mem_free_callback>:
 * @param m the heap memory to free
 * @return ERR_OK if callback could be enqueued, an err_t if not
 */
err_t
mem_free_callback(void *m)
{
  802401:	55                   	push   %ebp
  802402:	89 e5                	mov    %esp,%ebp
  802404:	83 ec 0c             	sub    $0xc,%esp
  return tcpip_callback_with_block(mem_free, m, 0);
  802407:	6a 00                	push   $0x0
  802409:	ff 75 08             	pushl  0x8(%ebp)
  80240c:	68 fa 3e 80 00       	push   $0x803efa
  802411:	e8 4c fe ff ff       	call   802262 <tcpip_callback_with_block>
}
  802416:	c9                   	leave  
  802417:	c3                   	ret    

00802418 <netbuf_new>:
 * @return a pointer to a new netbuf
 *         NULL on lack of memory
 */
struct
netbuf *netbuf_new(void)
{
  802418:	55                   	push   %ebp
  802419:	89 e5                	mov    %esp,%ebp
  80241b:	83 ec 14             	sub    $0x14,%esp
  struct netbuf *buf;

  buf = memp_malloc(MEMP_NETBUF);
  80241e:	6a 06                	push   $0x6
  802420:	e8 18 20 00 00       	call   80443d <memp_malloc>
  if (buf != NULL) {
  802425:	83 c4 10             	add    $0x10,%esp
  802428:	85 c0                	test   %eax,%eax
  80242a:	74 14                	je     802440 <netbuf_new+0x28>
    buf->p = NULL;
  80242c:	c7 00 00 00 00 00    	movl   $0x0,(%eax)
    buf->ptr = NULL;
  802432:	c7 40 04 00 00 00 00 	movl   $0x0,0x4(%eax)
    buf->addr = NULL;
  802439:	c7 40 08 00 00 00 00 	movl   $0x0,0x8(%eax)
    return buf;
  } else {
    return NULL;
  }
}
  802440:	c9                   	leave  
  802441:	c3                   	ret    

00802442 <netbuf_delete>:
 *
 * @param buf pointer to a netbuf allocated by netbuf_new()
 */
void
netbuf_delete(struct netbuf *buf)
{
  802442:	55                   	push   %ebp
  802443:	89 e5                	mov    %esp,%ebp
  802445:	53                   	push   %ebx
  802446:	83 ec 04             	sub    $0x4,%esp
  802449:	8b 5d 08             	mov    0x8(%ebp),%ebx
  if (buf != NULL) {
  80244c:	85 db                	test   %ebx,%ebx
  80244e:	74 2d                	je     80247d <netbuf_delete+0x3b>
    if (buf->p != NULL) {
  802450:	8b 03                	mov    (%ebx),%eax
  802452:	85 c0                	test   %eax,%eax
  802454:	74 19                	je     80246f <netbuf_delete+0x2d>
      pbuf_free(buf->p);
  802456:	83 ec 0c             	sub    $0xc,%esp
  802459:	50                   	push   %eax
  80245a:	e8 84 23 00 00       	call   8047e3 <pbuf_free>
      buf->p = buf->ptr = NULL;
  80245f:	c7 43 04 00 00 00 00 	movl   $0x0,0x4(%ebx)
  802466:	c7 03 00 00 00 00    	movl   $0x0,(%ebx)
  80246c:	83 c4 10             	add    $0x10,%esp
    }
    memp_free(MEMP_NETBUF, buf);
  80246f:	83 ec 08             	sub    $0x8,%esp
  802472:	53                   	push   %ebx
  802473:	6a 06                	push   $0x6
  802475:	e8 19 20 00 00       	call   804493 <memp_free>
  80247a:	83 c4 10             	add    $0x10,%esp
  }
}
  80247d:	8b 5d fc             	mov    -0x4(%ebp),%ebx
  802480:	c9                   	leave  
  802481:	c3                   	ret    

00802482 <netbuf_alloc>:
 * @return pointer to the allocated memory
 *         NULL if no memory could be allocated
 */
void *
netbuf_alloc(struct netbuf *buf, u16_t size)
{
  802482:	55                   	push   %ebp
  802483:	89 e5                	mov    %esp,%ebp
  802485:	56                   	push   %esi
  802486:	53                   	push   %ebx
  802487:	8b 5d 08             	mov    0x8(%ebp),%ebx
  80248a:	8b 75 0c             	mov    0xc(%ebp),%esi
  LWIP_ERROR("netbuf_alloc: invalid buf", (buf != NULL), return NULL;);
  80248d:	85 db                	test   %ebx,%ebx
  80248f:	74 3e                	je     8024cf <netbuf_alloc+0x4d>

  /* Deallocate any previously allocated memory. */
  if (buf->p != NULL) {
  802491:	8b 03                	mov    (%ebx),%eax
  802493:	85 c0                	test   %eax,%eax
  802495:	74 0c                	je     8024a3 <netbuf_alloc+0x21>
    pbuf_free(buf->p);
  802497:	83 ec 0c             	sub    $0xc,%esp
  80249a:	50                   	push   %eax
  80249b:	e8 43 23 00 00       	call   8047e3 <pbuf_free>
  8024a0:	83 c4 10             	add    $0x10,%esp
  }
  buf->p = pbuf_alloc(PBUF_TRANSPORT, size, PBUF_RAM);
  8024a3:	83 ec 04             	sub    $0x4,%esp
  8024a6:	6a 00                	push   $0x0
  8024a8:	0f b7 c6             	movzwl %si,%eax
  8024ab:	50                   	push   %eax
  8024ac:	6a 00                	push   $0x0
  8024ae:	e8 f6 23 00 00       	call   8048a9 <pbuf_alloc>
  8024b3:	89 03                	mov    %eax,(%ebx)
  if (buf->p == NULL) {
  8024b5:	83 c4 10             	add    $0x10,%esp
  8024b8:	85 c0                	test   %eax,%eax
  8024ba:	74 3b                	je     8024f7 <netbuf_alloc+0x75>
     return NULL;
  }
  LWIP_ASSERT("check that first pbuf can hold size",
  8024bc:	66 39 70 0a          	cmp    %si,0xa(%eax)
  8024c0:	72 21                	jb     8024e3 <netbuf_alloc+0x61>
             (buf->p->len >= size));
  buf->ptr = buf->p;
  8024c2:	89 43 04             	mov    %eax,0x4(%ebx)
  return buf->p->payload;
  8024c5:	8b 40 04             	mov    0x4(%eax),%eax
}
  8024c8:	8d 65 f8             	lea    -0x8(%ebp),%esp
  8024cb:	5b                   	pop    %ebx
  8024cc:	5e                   	pop    %esi
  8024cd:	5d                   	pop    %ebp
  8024ce:	c3                   	ret    
  LWIP_ERROR("netbuf_alloc: invalid buf", (buf != NULL), return NULL;);
  8024cf:	83 ec 04             	sub    $0x4,%esp
  8024d2:	68 c9 11 81 00       	push   $0x8111c9
  8024d7:	6a 63                	push   $0x63
  8024d9:	68 e3 11 81 00       	push   $0x8111e3
  8024de:	e8 8d c0 00 00       	call   80e570 <_panic>
  LWIP_ASSERT("check that first pbuf can hold size",
  8024e3:	83 ec 04             	sub    $0x4,%esp
  8024e6:	68 b0 12 81 00       	push   $0x8112b0
  8024eb:	6a 6e                	push   $0x6e
  8024ed:	68 e3 11 81 00       	push   $0x8111e3
  8024f2:	e8 79 c0 00 00       	call   80e570 <_panic>
     return NULL;
  8024f7:	b8 00 00 00 00       	mov    $0x0,%eax
  8024fc:	eb ca                	jmp    8024c8 <netbuf_alloc+0x46>

008024fe <netbuf_free>:
 *
 * @param buf pointer to the netbuf which contains the packet buffer to free
 */
void
netbuf_free(struct netbuf *buf)
{
  8024fe:	55                   	push   %ebp
  8024ff:	89 e5                	mov    %esp,%ebp
  802501:	53                   	push   %ebx
  802502:	83 ec 04             	sub    $0x4,%esp
  802505:	8b 5d 08             	mov    0x8(%ebp),%ebx
  LWIP_ERROR("netbuf_free: invalid buf", (buf != NULL), return;);
  802508:	85 db                	test   %ebx,%ebx
  80250a:	74 24                	je     802530 <netbuf_free+0x32>
  if (buf->p != NULL) {
  80250c:	8b 03                	mov    (%ebx),%eax
  80250e:	85 c0                	test   %eax,%eax
  802510:	74 0c                	je     80251e <netbuf_free+0x20>
    pbuf_free(buf->p);
  802512:	83 ec 0c             	sub    $0xc,%esp
  802515:	50                   	push   %eax
  802516:	e8 c8 22 00 00       	call   8047e3 <pbuf_free>
  80251b:	83 c4 10             	add    $0x10,%esp
  }
  buf->p = buf->ptr = NULL;
  80251e:	c7 43 04 00 00 00 00 	movl   $0x0,0x4(%ebx)
  802525:	c7 03 00 00 00 00    	movl   $0x0,(%ebx)
}
  80252b:	8b 5d fc             	mov    -0x4(%ebp),%ebx
  80252e:	c9                   	leave  
  80252f:	c3                   	ret    
  LWIP_ERROR("netbuf_free: invalid buf", (buf != NULL), return;);
  802530:	83 ec 04             	sub    $0x4,%esp
  802533:	68 f9 11 81 00       	push   $0x8111f9
  802538:	6a 7b                	push   $0x7b
  80253a:	68 e3 11 81 00       	push   $0x8111e3
  80253f:	e8 2c c0 00 00       	call   80e570 <_panic>

00802544 <netbuf_ref>:
 * @return ERR_OK if data is referenced
 *         ERR_MEM if data couldn't be referenced due to lack of memory
 */
err_t
netbuf_ref(struct netbuf *buf, const void *dataptr, u16_t size)
{
  802544:	55                   	push   %ebp
  802545:	89 e5                	mov    %esp,%ebp
  802547:	56                   	push   %esi
  802548:	53                   	push   %ebx
  802549:	8b 5d 08             	mov    0x8(%ebp),%ebx
  80254c:	8b 75 10             	mov    0x10(%ebp),%esi
  LWIP_ERROR("netbuf_ref: invalid buf", (buf != NULL), return ERR_ARG;);
  80254f:	85 db                	test   %ebx,%ebx
  802551:	74 4c                	je     80259f <netbuf_ref+0x5b>
  if (buf->p != NULL) {
  802553:	8b 03                	mov    (%ebx),%eax
  802555:	85 c0                	test   %eax,%eax
  802557:	74 0c                	je     802565 <netbuf_ref+0x21>
    pbuf_free(buf->p);
  802559:	83 ec 0c             	sub    $0xc,%esp
  80255c:	50                   	push   %eax
  80255d:	e8 81 22 00 00       	call   8047e3 <pbuf_free>
  802562:	83 c4 10             	add    $0x10,%esp
  }
  buf->p = pbuf_alloc(PBUF_TRANSPORT, 0, PBUF_REF);
  802565:	83 ec 04             	sub    $0x4,%esp
  802568:	6a 02                	push   $0x2
  80256a:	6a 00                	push   $0x0
  80256c:	6a 00                	push   $0x0
  80256e:	e8 36 23 00 00       	call   8048a9 <pbuf_alloc>
  802573:	89 03                	mov    %eax,(%ebx)
  if (buf->p == NULL) {
  802575:	83 c4 10             	add    $0x10,%esp
  802578:	85 c0                	test   %eax,%eax
  80257a:	74 3a                	je     8025b6 <netbuf_ref+0x72>
    buf->ptr = NULL;
    return ERR_MEM;
  }
  buf->p->payload = (void*)dataptr;
  80257c:	8b 55 0c             	mov    0xc(%ebp),%edx
  80257f:	89 50 04             	mov    %edx,0x4(%eax)
  buf->p->len = buf->p->tot_len = size;
  802582:	8b 03                	mov    (%ebx),%eax
  802584:	66 89 70 08          	mov    %si,0x8(%eax)
  802588:	8b 03                	mov    (%ebx),%eax
  80258a:	66 89 70 0a          	mov    %si,0xa(%eax)
  buf->ptr = buf->p;
  80258e:	8b 03                	mov    (%ebx),%eax
  802590:	89 43 04             	mov    %eax,0x4(%ebx)
  return ERR_OK;
  802593:	b8 00 00 00 00       	mov    $0x0,%eax
}
  802598:	8d 65 f8             	lea    -0x8(%ebp),%esp
  80259b:	5b                   	pop    %ebx
  80259c:	5e                   	pop    %esi
  80259d:	5d                   	pop    %ebp
  80259e:	c3                   	ret    
  LWIP_ERROR("netbuf_ref: invalid buf", (buf != NULL), return ERR_ARG;);
  80259f:	83 ec 04             	sub    $0x4,%esp
  8025a2:	68 12 12 81 00       	push   $0x811212
  8025a7:	68 8e 00 00 00       	push   $0x8e
  8025ac:	68 e3 11 81 00       	push   $0x8111e3
  8025b1:	e8 ba bf 00 00       	call   80e570 <_panic>
    buf->ptr = NULL;
  8025b6:	c7 43 04 00 00 00 00 	movl   $0x0,0x4(%ebx)
    return ERR_MEM;
  8025bd:	b8 ff ff ff ff       	mov    $0xffffffff,%eax
  8025c2:	eb d4                	jmp    802598 <netbuf_ref+0x54>

008025c4 <netbuf_chain>:
 * @param head the first netbuf
 * @param tail netbuf to chain after head
 */
void
netbuf_chain(struct netbuf *head, struct netbuf *tail)
{
  8025c4:	55                   	push   %ebp
  8025c5:	89 e5                	mov    %esp,%ebp
  8025c7:	56                   	push   %esi
  8025c8:	53                   	push   %ebx
  8025c9:	8b 5d 08             	mov    0x8(%ebp),%ebx
  8025cc:	8b 75 0c             	mov    0xc(%ebp),%esi
  LWIP_ERROR("netbuf_ref: invalid head", (head != NULL), return;);
  8025cf:	85 db                	test   %ebx,%ebx
  8025d1:	74 2a                	je     8025fd <netbuf_chain+0x39>
  LWIP_ERROR("netbuf_chain: invalid tail", (tail != NULL), return;);
  8025d3:	85 f6                	test   %esi,%esi
  8025d5:	74 3d                	je     802614 <netbuf_chain+0x50>
  pbuf_chain(head->p, tail->p);
  8025d7:	83 ec 08             	sub    $0x8,%esp
  8025da:	ff 36                	pushl  (%esi)
  8025dc:	ff 33                	pushl  (%ebx)
  8025de:	e8 e1 26 00 00       	call   804cc4 <pbuf_chain>
  head->ptr = head->p;
  8025e3:	8b 03                	mov    (%ebx),%eax
  8025e5:	89 43 04             	mov    %eax,0x4(%ebx)
  memp_free(MEMP_NETBUF, tail);
  8025e8:	83 c4 08             	add    $0x8,%esp
  8025eb:	56                   	push   %esi
  8025ec:	6a 06                	push   $0x6
  8025ee:	e8 a0 1e 00 00       	call   804493 <memp_free>
  8025f3:	83 c4 10             	add    $0x10,%esp
}
  8025f6:	8d 65 f8             	lea    -0x8(%ebp),%esp
  8025f9:	5b                   	pop    %ebx
  8025fa:	5e                   	pop    %esi
  8025fb:	5d                   	pop    %ebp
  8025fc:	c3                   	ret    
  LWIP_ERROR("netbuf_ref: invalid head", (head != NULL), return;);
  8025fd:	83 ec 04             	sub    $0x4,%esp
  802600:	68 2a 12 81 00       	push   $0x81122a
  802605:	68 a6 00 00 00       	push   $0xa6
  80260a:	68 e3 11 81 00       	push   $0x8111e3
  80260f:	e8 5c bf 00 00       	call   80e570 <_panic>
  LWIP_ERROR("netbuf_chain: invalid tail", (tail != NULL), return;);
  802614:	83 ec 04             	sub    $0x4,%esp
  802617:	68 43 12 81 00       	push   $0x811243
  80261c:	68 a7 00 00 00       	push   $0xa7
  802621:	68 e3 11 81 00       	push   $0x8111e3
  802626:	e8 45 bf 00 00       	call   80e570 <_panic>

0080262b <netbuf_data>:
 * @return ERR_OK if the information was retreived,
 *         ERR_BUF on error.
 */
err_t
netbuf_data(struct netbuf *buf, void **dataptr, u16_t *len)
{
  80262b:	55                   	push   %ebp
  80262c:	89 e5                	mov    %esp,%ebp
  80262e:	53                   	push   %ebx
  80262f:	83 ec 04             	sub    $0x4,%esp
  802632:	8b 45 08             	mov    0x8(%ebp),%eax
  802635:	8b 4d 0c             	mov    0xc(%ebp),%ecx
  802638:	8b 55 10             	mov    0x10(%ebp),%edx
  LWIP_ERROR("netbuf_data: invalid buf", (buf != NULL), return ERR_ARG;);
  80263b:	85 c0                	test   %eax,%eax
  80263d:	74 28                	je     802667 <netbuf_data+0x3c>
  LWIP_ERROR("netbuf_data: invalid dataptr", (dataptr != NULL), return ERR_ARG;);
  80263f:	85 c9                	test   %ecx,%ecx
  802641:	74 3b                	je     80267e <netbuf_data+0x53>
  LWIP_ERROR("netbuf_data: invalid len", (len != NULL), return ERR_ARG;);
  802643:	85 d2                	test   %edx,%edx
  802645:	74 4e                	je     802695 <netbuf_data+0x6a>

  if (buf->ptr == NULL) {
  802647:	8b 58 04             	mov    0x4(%eax),%ebx
  80264a:	85 db                	test   %ebx,%ebx
  80264c:	74 5e                	je     8026ac <netbuf_data+0x81>
    return ERR_BUF;
  }
  *dataptr = buf->ptr->payload;
  80264e:	8b 5b 04             	mov    0x4(%ebx),%ebx
  802651:	89 19                	mov    %ebx,(%ecx)
  *len = buf->ptr->len;
  802653:	8b 40 04             	mov    0x4(%eax),%eax
  802656:	0f b7 40 0a          	movzwl 0xa(%eax),%eax
  80265a:	66 89 02             	mov    %ax,(%edx)
  return ERR_OK;
  80265d:	b8 00 00 00 00       	mov    $0x0,%eax
}
  802662:	8b 5d fc             	mov    -0x4(%ebp),%ebx
  802665:	c9                   	leave  
  802666:	c3                   	ret    
  LWIP_ERROR("netbuf_data: invalid buf", (buf != NULL), return ERR_ARG;);
  802667:	83 ec 04             	sub    $0x4,%esp
  80266a:	68 5e 12 81 00       	push   $0x81125e
  80266f:	68 b9 00 00 00       	push   $0xb9
  802674:	68 e3 11 81 00       	push   $0x8111e3
  802679:	e8 f2 be 00 00       	call   80e570 <_panic>
  LWIP_ERROR("netbuf_data: invalid dataptr", (dataptr != NULL), return ERR_ARG;);
  80267e:	83 ec 04             	sub    $0x4,%esp
  802681:	68 77 12 81 00       	push   $0x811277
  802686:	68 ba 00 00 00       	push   $0xba
  80268b:	68 e3 11 81 00       	push   $0x8111e3
  802690:	e8 db be 00 00       	call   80e570 <_panic>
  LWIP_ERROR("netbuf_data: invalid len", (len != NULL), return ERR_ARG;);
  802695:	83 ec 04             	sub    $0x4,%esp
  802698:	68 94 12 81 00       	push   $0x811294
  80269d:	68 bb 00 00 00       	push   $0xbb
  8026a2:	68 e3 11 81 00       	push   $0x8111e3
  8026a7:	e8 c4 be 00 00       	call   80e570 <_panic>
    return ERR_BUF;
  8026ac:	b8 fe ff ff ff       	mov    $0xfffffffe,%eax
  8026b1:	eb af                	jmp    802662 <netbuf_data+0x37>

008026b3 <netbuf_next>:
 *         1  if moved to the next part but now there is no next part
 *         0  if moved to the next part and there are still more parts
 */
s8_t
netbuf_next(struct netbuf *buf)
{
  8026b3:	55                   	push   %ebp
  8026b4:	89 e5                	mov    %esp,%ebp
  8026b6:	83 ec 08             	sub    $0x8,%esp
  8026b9:	8b 45 08             	mov    0x8(%ebp),%eax
  LWIP_ERROR("netbuf_free: invalid buf", (buf != NULL), return -1;);
  8026bc:	85 c0                	test   %eax,%eax
  8026be:	74 14                	je     8026d4 <netbuf_next+0x21>
  if (buf->ptr->next == NULL) {
  8026c0:	8b 50 04             	mov    0x4(%eax),%edx
  8026c3:	8b 12                	mov    (%edx),%edx
  8026c5:	85 d2                	test   %edx,%edx
  8026c7:	74 22                	je     8026eb <netbuf_next+0x38>
    return -1;
  }
  buf->ptr = buf->ptr->next;
  8026c9:	89 50 04             	mov    %edx,0x4(%eax)
  if (buf->ptr->next == NULL) {
  8026cc:	83 3a 00             	cmpl   $0x0,(%edx)
  8026cf:	0f 94 c0             	sete   %al
    return 1;
  }
  return 0;
}
  8026d2:	c9                   	leave  
  8026d3:	c3                   	ret    
  LWIP_ERROR("netbuf_free: invalid buf", (buf != NULL), return -1;);
  8026d4:	83 ec 04             	sub    $0x4,%esp
  8026d7:	68 f9 11 81 00       	push   $0x8111f9
  8026dc:	68 d2 00 00 00       	push   $0xd2
  8026e1:	68 e3 11 81 00       	push   $0x8111e3
  8026e6:	e8 85 be 00 00       	call   80e570 <_panic>
    return -1;
  8026eb:	b8 ff ff ff ff       	mov    $0xffffffff,%eax
  8026f0:	eb e0                	jmp    8026d2 <netbuf_next+0x1f>

008026f2 <netbuf_first>:
 *
 * @param buf the netbuf to modify
 */
void
netbuf_first(struct netbuf *buf)
{
  8026f2:	55                   	push   %ebp
  8026f3:	89 e5                	mov    %esp,%ebp
  8026f5:	83 ec 08             	sub    $0x8,%esp
  8026f8:	8b 45 08             	mov    0x8(%ebp),%eax
  LWIP_ERROR("netbuf_free: invalid buf", (buf != NULL), return;);
  8026fb:	85 c0                	test   %eax,%eax
  8026fd:	74 07                	je     802706 <netbuf_first+0x14>
  buf->ptr = buf->p;
  8026ff:	8b 10                	mov    (%eax),%edx
  802701:	89 50 04             	mov    %edx,0x4(%eax)
}
  802704:	c9                   	leave  
  802705:	c3                   	ret    
  LWIP_ERROR("netbuf_free: invalid buf", (buf != NULL), return;);
  802706:	83 ec 04             	sub    $0x4,%esp
  802709:	68 f9 11 81 00       	push   $0x8111f9
  80270e:	68 e7 00 00 00       	push   $0xe7
  802713:	68 e3 11 81 00       	push   $0x8111e3
  802718:	e8 53 be 00 00       	call   80e570 <_panic>

0080271d <lwip_init>:
/**
 * Perform Sanity check of user-configurable values, and initialize all modules.
 */
void
lwip_init(void)
{
  80271d:	55                   	push   %ebp
  80271e:	89 e5                	mov    %esp,%ebp
  802720:	83 ec 08             	sub    $0x8,%esp
  /* Sanity check user-configurable values */
  lwip_sanity_check();

  /* Modules initialization */
  stats_init();
  sys_init();
  802723:	e8 dc 75 00 00       	call   809d04 <sys_init>
  mem_init();
  802728:	e8 67 17 00 00       	call   803e94 <mem_init>
  memp_init();
  80272d:	e8 af 1c 00 00       	call   8043e1 <memp_init>
  pbuf_init();
  netif_init();
#if LWIP_SOCKET
  lwip_socket_init();
  802732:	e8 ac e6 ff ff       	call   800de3 <lwip_socket_init>
  igmp_init();
#endif /* LWIP_IGMP */
#if LWIP_DNS
  dns_init();
#endif /* LWIP_DNS */
}
  802737:	c9                   	leave  
  802738:	c3                   	ret    

00802739 <dhcp_set_state>:
 * TODO: we might also want to reset the timeout here?
 */
static void
dhcp_set_state(struct dhcp *dhcp, u8_t new_state)
{
  if (new_state != dhcp->state) {
  802739:	38 10                	cmp    %dl,(%eax)
  80273b:	74 06                	je     802743 <dhcp_set_state+0xa>
    dhcp->state = new_state;
  80273d:	88 10                	mov    %dl,(%eax)
    dhcp->tries = 0;
  80273f:	c6 40 01 00          	movb   $0x0,0x1(%eax)
  }
}
  802743:	c3                   	ret    

00802744 <dhcp_get_option_ptr>:
 *
 * @return a byte offset into the UDP message where the option was found, or
 * zero if the given option was not found.
 */
static u8_t *dhcp_get_option_ptr(struct dhcp *dhcp, u8_t option_type)
{
  802744:	55                   	push   %ebp
  802745:	89 e5                	mov    %esp,%ebp
  802747:	57                   	push   %edi
  802748:	56                   	push   %esi
  802749:	53                   	push   %ebx
  80274a:	83 ec 08             	sub    $0x8,%esp
  80274d:	89 45 ec             	mov    %eax,-0x14(%ebp)
  u8_t overload = DHCP_OVERLOAD_NONE;

  /* options available? */
  if ((dhcp->options_in != NULL) && (dhcp->options_in_len > 0)) {
  802750:	8b 70 14             	mov    0x14(%eax),%esi
  802753:	85 f6                	test   %esi,%esi
  802755:	0f 84 eb 00 00 00    	je     802846 <dhcp_get_option_ptr+0x102>
  80275b:	0f b7 78 18          	movzwl 0x18(%eax),%edi
    /* start with options field */
    u8_t *options = (u8_t *)dhcp->options_in;
    u16_t offset = 0;
  80275f:	b9 00 00 00 00       	mov    $0x0,%ecx
  u8_t overload = DHCP_OVERLOAD_NONE;
  802764:	c6 45 f3 00          	movb   $0x0,-0xd(%ebp)
          offset += 1 + options[offset];
        }
      }
    }
  }
  return NULL;
  802768:	b8 00 00 00 00       	mov    $0x0,%eax
  if ((dhcp->options_in != NULL) && (dhcp->options_in_len > 0)) {
  80276d:	66 85 ff             	test   %di,%di
  802770:	75 28                	jne    80279a <dhcp_get_option_ptr+0x56>
}
  802772:	83 c4 08             	add    $0x8,%esp
  802775:	5b                   	pop    %ebx
  802776:	5e                   	pop    %esi
  802777:	5f                   	pop    %edi
  802778:	5d                   	pop    %ebp
  802779:	c3                   	ret    
        offset += 2;
  80277a:	8d 41 02             	lea    0x2(%ecx),%eax
        overload = options[offset++];
  80277d:	83 c1 03             	add    $0x3,%ecx
  802780:	0f b7 c0             	movzwl %ax,%eax
  802783:	0f b6 04 06          	movzbl (%esi,%eax,1),%eax
  802787:	88 45 f3             	mov    %al,-0xd(%ebp)
  80278a:	eb 0e                	jmp    80279a <dhcp_get_option_ptr+0x56>
        offset++;
  80278c:	8d 41 01             	lea    0x1(%ecx),%eax
        offset += 1 + options[offset];
  80278f:	0f b7 c0             	movzwl %ax,%eax
  802792:	0f b6 04 06          	movzbl (%esi,%eax,1),%eax
  802796:	8d 4c 08 02          	lea    0x2(%eax,%ecx,1),%ecx
    while ((offset < dhcp->options_in_len) && (options[offset] != DHCP_OPTION_END)) {
  80279a:	66 39 cf             	cmp    %cx,%di
  80279d:	76 18                	jbe    8027b7 <dhcp_get_option_ptr+0x73>
  80279f:	0f b7 c1             	movzwl %cx,%eax
  8027a2:	01 f0                	add    %esi,%eax
  8027a4:	0f b6 18             	movzbl (%eax),%ebx
  8027a7:	80 fb ff             	cmp    $0xff,%bl
  8027aa:	74 0b                	je     8027b7 <dhcp_get_option_ptr+0x73>
      if (options[offset] == DHCP_OPTION_OVERLOAD) {
  8027ac:	80 fb 34             	cmp    $0x34,%bl
  8027af:	74 c9                	je     80277a <dhcp_get_option_ptr+0x36>
      else if (options[offset] == option_type) {
  8027b1:	38 d3                	cmp    %dl,%bl
  8027b3:	75 d7                	jne    80278c <dhcp_get_option_ptr+0x48>
  8027b5:	eb bb                	jmp    802772 <dhcp_get_option_ptr+0x2e>
  return NULL;
  8027b7:	b8 00 00 00 00       	mov    $0x0,%eax
    if (overload != DHCP_OVERLOAD_NONE) {
  8027bc:	0f b6 5d f3          	movzbl -0xd(%ebp),%ebx
  8027c0:	84 db                	test   %bl,%bl
  8027c2:	74 ae                	je     802772 <dhcp_get_option_ptr+0x2e>
      if (overload == DHCP_OVERLOAD_FILE) {
  8027c4:	80 fb 01             	cmp    $0x1,%bl
  8027c7:	74 53                	je     80281c <dhcp_get_option_ptr+0xd8>
      } else if (overload == DHCP_OVERLOAD_SNAME) {
  8027c9:	80 7d f3 02          	cmpb   $0x2,-0xd(%ebp)
  8027cd:	74 5d                	je     80282c <dhcp_get_option_ptr+0xe8>
        options = (u8_t *)&dhcp->msg_in->sname;
  8027cf:	8b 45 ec             	mov    -0x14(%ebp),%eax
  8027d2:	8b 58 10             	mov    0x10(%eax),%ebx
  8027d5:	83 c3 2c             	add    $0x2c,%ebx
        field_len = DHCP_FILE_LEN + DHCP_SNAME_LEN;
  8027d8:	be c0 00 00 00       	mov    $0xc0,%esi
      offset = 0;
  8027dd:	b9 00 00 00 00       	mov    $0x0,%ecx
  8027e2:	88 55 f3             	mov    %dl,-0xd(%ebp)
      while ((offset < field_len) && (options[offset] != DHCP_OPTION_END)) {
  8027e5:	0f b7 c1             	movzwl %cx,%eax
  8027e8:	01 d8                	add    %ebx,%eax
  8027ea:	0f b6 38             	movzbl (%eax),%edi
  8027ed:	89 fa                	mov    %edi,%edx
  8027ef:	80 fa ff             	cmp    $0xff,%dl
  8027f2:	74 48                	je     80283c <dhcp_get_option_ptr+0xf8>
        if (options[offset] == option_type) {
  8027f4:	89 fa                	mov    %edi,%edx
  8027f6:	3a 55 f3             	cmp    -0xd(%ebp),%dl
  8027f9:	0f 84 73 ff ff ff    	je     802772 <dhcp_get_option_ptr+0x2e>
          offset++;
  8027ff:	8d 41 01             	lea    0x1(%ecx),%eax
          offset += 1 + options[offset];
  802802:	0f b7 c0             	movzwl %ax,%eax
  802805:	0f b6 04 03          	movzbl (%ebx,%eax,1),%eax
  802809:	8d 4c 01 02          	lea    0x2(%ecx,%eax,1),%ecx
      while ((offset < field_len) && (options[offset] != DHCP_OPTION_END)) {
  80280d:	66 39 ce             	cmp    %cx,%si
  802810:	77 d3                	ja     8027e5 <dhcp_get_option_ptr+0xa1>
  return NULL;
  802812:	b8 00 00 00 00       	mov    $0x0,%eax
  802817:	e9 56 ff ff ff       	jmp    802772 <dhcp_get_option_ptr+0x2e>
        options = (u8_t *)&dhcp->msg_in->file;
  80281c:	8b 45 ec             	mov    -0x14(%ebp),%eax
  80281f:	8b 58 10             	mov    0x10(%eax),%ebx
  802822:	83 c3 6c             	add    $0x6c,%ebx
        field_len = DHCP_FILE_LEN;
  802825:	be 80 00 00 00       	mov    $0x80,%esi
  80282a:	eb b1                	jmp    8027dd <dhcp_get_option_ptr+0x99>
        options = (u8_t *)&dhcp->msg_in->sname;
  80282c:	8b 45 ec             	mov    -0x14(%ebp),%eax
  80282f:	8b 58 10             	mov    0x10(%eax),%ebx
  802832:	83 c3 2c             	add    $0x2c,%ebx
        field_len = DHCP_SNAME_LEN;
  802835:	be 40 00 00 00       	mov    $0x40,%esi
  80283a:	eb a1                	jmp    8027dd <dhcp_get_option_ptr+0x99>
  return NULL;
  80283c:	b8 00 00 00 00       	mov    $0x0,%eax
  802841:	e9 2c ff ff ff       	jmp    802772 <dhcp_get_option_ptr+0x2e>
  802846:	b8 00 00 00 00       	mov    $0x0,%eax
  80284b:	e9 22 ff ff ff       	jmp    802772 <dhcp_get_option_ptr+0x2e>

00802850 <dhcp_get_option_long>:
 * @return byte value at the given address.
 */
static u32_t dhcp_get_option_long(u8_t *ptr)
{
  u32_t value;
  value = (u32_t)(*ptr++) << 24;
  802850:	0f b6 10             	movzbl (%eax),%edx
  802853:	89 d1                	mov    %edx,%ecx
  802855:	c1 e1 18             	shl    $0x18,%ecx
  value |= (u32_t)(*ptr++) << 16;
  802858:	0f b6 50 01          	movzbl 0x1(%eax),%edx
  80285c:	c1 e2 10             	shl    $0x10,%edx
  80285f:	09 ca                	or     %ecx,%edx
  value |= (u32_t)(*ptr++) << 8;
  value |= (u32_t)(*ptr++);
  802861:	0f b6 48 03          	movzbl 0x3(%eax),%ecx
  802865:	09 ca                	or     %ecx,%edx
  value |= (u32_t)(*ptr++) << 8;
  802867:	0f b6 40 02          	movzbl 0x2(%eax),%eax
  80286b:	c1 e0 08             	shl    $0x8,%eax
  value |= (u32_t)(*ptr++);
  80286e:	09 d0                	or     %edx,%eax
  LWIP_DEBUGF(DHCP_DEBUG, ("option long value=%"U32_F"\n", value));
  return value;
}
  802870:	c3                   	ret    

00802871 <dhcp_option_byte>:
{
  802871:	55                   	push   %ebp
  802872:	89 e5                	mov    %esp,%ebp
  802874:	56                   	push   %esi
  802875:	53                   	push   %ebx
  LWIP_ASSERT("dhcp_option_byte: dhcp->options_out_len < DHCP_OPTIONS_LEN", dhcp->options_out_len < DHCP_OPTIONS_LEN);
  802876:	0f b7 48 24          	movzwl 0x24(%eax),%ecx
  80287a:	66 83 f9 43          	cmp    $0x43,%cx
  80287e:	77 1b                	ja     80289b <dhcp_option_byte+0x2a>
  dhcp->msg_out->options[dhcp->options_out_len++] = value;
  802880:	8b 58 20             	mov    0x20(%eax),%ebx
  802883:	8d 71 01             	lea    0x1(%ecx),%esi
  802886:	66 89 70 24          	mov    %si,0x24(%eax)
  80288a:	0f b7 c9             	movzwl %cx,%ecx
  80288d:	88 94 0b f0 00 00 00 	mov    %dl,0xf0(%ebx,%ecx,1)
}
  802894:	8d 65 f8             	lea    -0x8(%ebp),%esp
  802897:	5b                   	pop    %ebx
  802898:	5e                   	pop    %esi
  802899:	5d                   	pop    %ebp
  80289a:	c3                   	ret    
  LWIP_ASSERT("dhcp_option_byte: dhcp->options_out_len < DHCP_OPTIONS_LEN", dhcp->options_out_len < DHCP_OPTIONS_LEN);
  80289b:	83 ec 04             	sub    $0x4,%esp
  80289e:	68 d4 12 81 00       	push   $0x8112d4
  8028a3:	68 65 04 00 00       	push   $0x465
  8028a8:	68 22 16 81 00       	push   $0x811622
  8028ad:	e8 be bc 00 00       	call   80e570 <_panic>

008028b2 <dhcp_option>:
{
  8028b2:	55                   	push   %ebp
  8028b3:	89 e5                	mov    %esp,%ebp
  8028b5:	57                   	push   %edi
  8028b6:	56                   	push   %esi
  8028b7:	53                   	push   %ebx
  8028b8:	83 ec 0c             	sub    $0xc,%esp
  LWIP_ASSERT("dhcp_option: dhcp->options_out_len + 2 + option_len <= DHCP_OPTIONS_LEN", dhcp->options_out_len + 2U + option_len <= DHCP_OPTIONS_LEN);
  8028bb:	0f b7 58 24          	movzwl 0x24(%eax),%ebx
  8028bf:	0f b6 f9             	movzbl %cl,%edi
  8028c2:	0f b7 f3             	movzwl %bx,%esi
  8028c5:	8d 74 37 02          	lea    0x2(%edi,%esi,1),%esi
  8028c9:	83 fe 44             	cmp    $0x44,%esi
  8028cc:	77 34                	ja     802902 <dhcp_option+0x50>
  dhcp->msg_out->options[dhcp->options_out_len++] = option_type;
  8028ce:	8b 70 20             	mov    0x20(%eax),%esi
  8028d1:	8d 7b 01             	lea    0x1(%ebx),%edi
  8028d4:	66 89 78 24          	mov    %di,0x24(%eax)
  8028d8:	0f b7 db             	movzwl %bx,%ebx
  8028db:	88 94 1e f0 00 00 00 	mov    %dl,0xf0(%esi,%ebx,1)
  dhcp->msg_out->options[dhcp->options_out_len++] = option_len;
  8028e2:	8b 58 20             	mov    0x20(%eax),%ebx
  8028e5:	0f b7 50 24          	movzwl 0x24(%eax),%edx
  8028e9:	8d 72 01             	lea    0x1(%edx),%esi
  8028ec:	66 89 70 24          	mov    %si,0x24(%eax)
  8028f0:	0f b7 d2             	movzwl %dx,%edx
  8028f3:	88 8c 13 f0 00 00 00 	mov    %cl,0xf0(%ebx,%edx,1)
}
  8028fa:	8d 65 f4             	lea    -0xc(%ebp),%esp
  8028fd:	5b                   	pop    %ebx
  8028fe:	5e                   	pop    %esi
  8028ff:	5f                   	pop    %edi
  802900:	5d                   	pop    %ebp
  802901:	c3                   	ret    
  LWIP_ASSERT("dhcp_option: dhcp->options_out_len + 2 + option_len <= DHCP_OPTIONS_LEN", dhcp->options_out_len + 2U + option_len <= DHCP_OPTIONS_LEN);
  802902:	83 ec 04             	sub    $0x4,%esp
  802905:	68 10 13 81 00       	push   $0x811310
  80290a:	68 5a 04 00 00       	push   $0x45a
  80290f:	68 22 16 81 00       	push   $0x811622
  802914:	e8 57 bc 00 00       	call   80e570 <_panic>

00802919 <dhcp_option_short>:
{
  802919:	55                   	push   %ebp
  80291a:	89 e5                	mov    %esp,%ebp
  80291c:	56                   	push   %esi
  80291d:	53                   	push   %ebx
  LWIP_ASSERT("dhcp_option_short: dhcp->options_out_len + 2 <= DHCP_OPTIONS_LEN", dhcp->options_out_len + 2U <= DHCP_OPTIONS_LEN);
  80291e:	0f b7 48 24          	movzwl 0x24(%eax),%ecx
  802922:	0f b7 d9             	movzwl %cx,%ebx
  802925:	83 c3 02             	add    $0x2,%ebx
  802928:	83 fb 44             	cmp    $0x44,%ebx
  80292b:	77 33                	ja     802960 <dhcp_option_short+0x47>
  dhcp->msg_out->options[dhcp->options_out_len++] = (u8_t)((value & 0xff00U) >> 8);
  80292d:	8b 58 20             	mov    0x20(%eax),%ebx
  802930:	8d 71 01             	lea    0x1(%ecx),%esi
  802933:	66 89 70 24          	mov    %si,0x24(%eax)
  802937:	0f b7 c9             	movzwl %cx,%ecx
  80293a:	88 b4 0b f0 00 00 00 	mov    %dh,0xf0(%ebx,%ecx,1)
  dhcp->msg_out->options[dhcp->options_out_len++] = (u8_t) (value & 0x00ffU);
  802941:	8b 58 20             	mov    0x20(%eax),%ebx
  802944:	0f b7 48 24          	movzwl 0x24(%eax),%ecx
  802948:	8d 71 01             	lea    0x1(%ecx),%esi
  80294b:	66 89 70 24          	mov    %si,0x24(%eax)
  80294f:	0f b7 c9             	movzwl %cx,%ecx
  802952:	88 94 0b f0 00 00 00 	mov    %dl,0xf0(%ebx,%ecx,1)
}
  802959:	8d 65 f8             	lea    -0x8(%ebp),%esp
  80295c:	5b                   	pop    %ebx
  80295d:	5e                   	pop    %esi
  80295e:	5d                   	pop    %ebp
  80295f:	c3                   	ret    
  LWIP_ASSERT("dhcp_option_short: dhcp->options_out_len + 2 <= DHCP_OPTIONS_LEN", dhcp->options_out_len + 2U <= DHCP_OPTIONS_LEN);
  802960:	83 ec 04             	sub    $0x4,%esp
  802963:	68 58 13 81 00       	push   $0x811358
  802968:	68 6c 04 00 00       	push   $0x46c
  80296d:	68 22 16 81 00       	push   $0x811622
  802972:	e8 f9 bb 00 00       	call   80e570 <_panic>

00802977 <dhcp_option_trailer>:
{
  802977:	55                   	push   %ebp
  802978:	89 e5                	mov    %esp,%ebp
  80297a:	53                   	push   %ebx
  80297b:	83 ec 04             	sub    $0x4,%esp
  LWIP_ERROR("dhcp_option_trailer: dhcp != NULL", (dhcp != NULL), return;);
  80297e:	85 c0                	test   %eax,%eax
  802980:	74 25                	je     8029a7 <dhcp_option_trailer+0x30>
  LWIP_ASSERT("dhcp_option_trailer: dhcp->msg_out != NULL\n", dhcp->msg_out != NULL);
  802982:	8b 48 20             	mov    0x20(%eax),%ecx
  802985:	85 c9                	test   %ecx,%ecx
  802987:	74 35                	je     8029be <dhcp_option_trailer+0x47>
  LWIP_ASSERT("dhcp_option_trailer: dhcp->options_out_len < DHCP_OPTIONS_LEN\n", dhcp->options_out_len < DHCP_OPTIONS_LEN);
  802989:	0f b7 50 24          	movzwl 0x24(%eax),%edx
  80298d:	66 83 fa 43          	cmp    $0x43,%dx
  802991:	77 42                	ja     8029d5 <dhcp_option_trailer+0x5e>
  dhcp->msg_out->options[dhcp->options_out_len++] = DHCP_OPTION_END;
  802993:	8d 5a 01             	lea    0x1(%edx),%ebx
  802996:	66 89 58 24          	mov    %bx,0x24(%eax)
  80299a:	0f b7 d2             	movzwl %dx,%edx
  80299d:	c6 84 11 f0 00 00 00 	movb   $0xff,0xf0(%ecx,%edx,1)
  8029a4:	ff 
  while ((dhcp->options_out_len < DHCP_MIN_OPTIONS_LEN) || (dhcp->options_out_len & 3)) {
  8029a5:	eb 5a                	jmp    802a01 <dhcp_option_trailer+0x8a>
  LWIP_ERROR("dhcp_option_trailer: dhcp != NULL", (dhcp != NULL), return;);
  8029a7:	83 ec 04             	sub    $0x4,%esp
  8029aa:	68 9c 13 81 00       	push   $0x81139c
  8029af:	68 80 05 00 00       	push   $0x580
  8029b4:	68 22 16 81 00       	push   $0x811622
  8029b9:	e8 b2 bb 00 00       	call   80e570 <_panic>
  LWIP_ASSERT("dhcp_option_trailer: dhcp->msg_out != NULL\n", dhcp->msg_out != NULL);
  8029be:	83 ec 04             	sub    $0x4,%esp
  8029c1:	68 c0 13 81 00       	push   $0x8113c0
  8029c6:	68 81 05 00 00       	push   $0x581
  8029cb:	68 22 16 81 00       	push   $0x811622
  8029d0:	e8 9b bb 00 00       	call   80e570 <_panic>
  LWIP_ASSERT("dhcp_option_trailer: dhcp->options_out_len < DHCP_OPTIONS_LEN\n", dhcp->options_out_len < DHCP_OPTIONS_LEN);
  8029d5:	83 ec 04             	sub    $0x4,%esp
  8029d8:	68 ec 13 81 00       	push   $0x8113ec
  8029dd:	68 82 05 00 00       	push   $0x582
  8029e2:	68 22 16 81 00       	push   $0x811622
  8029e7:	e8 84 bb 00 00       	call   80e570 <_panic>
    dhcp->msg_out->options[dhcp->options_out_len++] = 0;
  8029ec:	8b 48 20             	mov    0x20(%eax),%ecx
  8029ef:	8d 5a 01             	lea    0x1(%edx),%ebx
  8029f2:	66 89 58 24          	mov    %bx,0x24(%eax)
  8029f6:	0f b7 d2             	movzwl %dx,%edx
  8029f9:	c6 84 11 f0 00 00 00 	movb   $0x0,0xf0(%ecx,%edx,1)
  802a00:	00 
  while ((dhcp->options_out_len < DHCP_MIN_OPTIONS_LEN) || (dhcp->options_out_len & 3)) {
  802a01:	0f b7 50 24          	movzwl 0x24(%eax),%edx
  802a05:	66 83 fa 43          	cmp    $0x43,%dx
  802a09:	76 e1                	jbe    8029ec <dhcp_option_trailer+0x75>
  802a0b:	f6 c2 03             	test   $0x3,%dl
  802a0e:	74 17                	je     802a27 <dhcp_option_trailer+0xb0>
    LWIP_ASSERT("dhcp_option_trailer: dhcp->options_out_len < DHCP_OPTIONS_LEN\n", dhcp->options_out_len < DHCP_OPTIONS_LEN);
  802a10:	83 ec 04             	sub    $0x4,%esp
  802a13:	68 ec 13 81 00       	push   $0x8113ec
  802a18:	68 87 05 00 00       	push   $0x587
  802a1d:	68 22 16 81 00       	push   $0x811622
  802a22:	e8 49 bb 00 00       	call   80e570 <_panic>
}
  802a27:	8b 5d fc             	mov    -0x4(%ebp),%ebx
  802a2a:	c9                   	leave  
  802a2b:	c3                   	ret    

00802a2c <dhcp_option_long>:
{
  802a2c:	55                   	push   %ebp
  802a2d:	89 e5                	mov    %esp,%ebp
  802a2f:	56                   	push   %esi
  802a30:	53                   	push   %ebx
  LWIP_ASSERT("dhcp_option_long: dhcp->options_out_len + 4 <= DHCP_OPTIONS_LEN", dhcp->options_out_len + 4U <= DHCP_OPTIONS_LEN);
  802a31:	0f b7 48 24          	movzwl 0x24(%eax),%ecx
  802a35:	0f b7 d9             	movzwl %cx,%ebx
  802a38:	83 c3 04             	add    $0x4,%ebx
  802a3b:	83 fb 44             	cmp    $0x44,%ebx
  802a3e:	77 6d                	ja     802aad <dhcp_option_long+0x81>
  dhcp->msg_out->options[dhcp->options_out_len++] = (u8_t)((value & 0xff000000UL) >> 24);
  802a40:	8d 71 01             	lea    0x1(%ecx),%esi
  802a43:	66 89 70 24          	mov    %si,0x24(%eax)
  802a47:	0f b7 c9             	movzwl %cx,%ecx
  802a4a:	89 d3                	mov    %edx,%ebx
  802a4c:	c1 eb 18             	shr    $0x18,%ebx
  802a4f:	8b 70 20             	mov    0x20(%eax),%esi
  802a52:	88 9c 0e f0 00 00 00 	mov    %bl,0xf0(%esi,%ecx,1)
  dhcp->msg_out->options[dhcp->options_out_len++] = (u8_t)((value & 0x00ff0000UL) >> 16);
  802a59:	0f b7 48 24          	movzwl 0x24(%eax),%ecx
  802a5d:	8d 71 01             	lea    0x1(%ecx),%esi
  802a60:	66 89 70 24          	mov    %si,0x24(%eax)
  802a64:	0f b7 c9             	movzwl %cx,%ecx
  802a67:	89 d3                	mov    %edx,%ebx
  802a69:	c1 eb 10             	shr    $0x10,%ebx
  802a6c:	8b 70 20             	mov    0x20(%eax),%esi
  802a6f:	88 9c 0e f0 00 00 00 	mov    %bl,0xf0(%esi,%ecx,1)
  dhcp->msg_out->options[dhcp->options_out_len++] = (u8_t)((value & 0x0000ff00UL) >> 8);
  802a76:	8b 58 20             	mov    0x20(%eax),%ebx
  802a79:	0f b7 48 24          	movzwl 0x24(%eax),%ecx
  802a7d:	8d 71 01             	lea    0x1(%ecx),%esi
  802a80:	66 89 70 24          	mov    %si,0x24(%eax)
  802a84:	0f b7 c9             	movzwl %cx,%ecx
  802a87:	88 b4 0b f0 00 00 00 	mov    %dh,0xf0(%ebx,%ecx,1)
  dhcp->msg_out->options[dhcp->options_out_len++] = (u8_t)((value & 0x000000ffUL));
  802a8e:	8b 58 20             	mov    0x20(%eax),%ebx
  802a91:	0f b7 48 24          	movzwl 0x24(%eax),%ecx
  802a95:	8d 71 01             	lea    0x1(%ecx),%esi
  802a98:	66 89 70 24          	mov    %si,0x24(%eax)
  802a9c:	0f b7 c9             	movzwl %cx,%ecx
  802a9f:	88 94 0b f0 00 00 00 	mov    %dl,0xf0(%ebx,%ecx,1)
}
  802aa6:	8d 65 f8             	lea    -0x8(%ebp),%esp
  802aa9:	5b                   	pop    %ebx
  802aaa:	5e                   	pop    %esi
  802aab:	5d                   	pop    %ebp
  802aac:	c3                   	ret    
  LWIP_ASSERT("dhcp_option_long: dhcp->options_out_len + 4 <= DHCP_OPTIONS_LEN", dhcp->options_out_len + 4U <= DHCP_OPTIONS_LEN);
  802aad:	83 ec 04             	sub    $0x4,%esp
  802ab0:	68 2c 14 81 00       	push   $0x81142c
  802ab5:	68 74 04 00 00       	push   $0x474
  802aba:	68 22 16 81 00       	push   $0x811622
  802abf:	e8 ac ba 00 00       	call   80e570 <_panic>

00802ac4 <dhcp_create_request>:
{
  802ac4:	55                   	push   %ebp
  802ac5:	89 e5                	mov    %esp,%ebp
  802ac7:	57                   	push   %edi
  802ac8:	56                   	push   %esi
  802ac9:	53                   	push   %ebx
  802aca:	83 ec 0c             	sub    $0xc,%esp
  LWIP_ERROR("dhcp_create_request: netif != NULL", (netif != NULL), return ERR_ARG;);
  802acd:	85 c0                	test   %eax,%eax
  802acf:	0f 84 d8 00 00 00    	je     802bad <dhcp_create_request+0xe9>
  802ad5:	89 c6                	mov    %eax,%esi
  dhcp = netif->dhcp;
  802ad7:	8b 58 20             	mov    0x20(%eax),%ebx
  LWIP_ERROR("dhcp_create_request: dhcp != NULL", (dhcp != NULL), return ERR_VAL;);
  802ada:	85 db                	test   %ebx,%ebx
  802adc:	0f 84 e2 00 00 00    	je     802bc4 <dhcp_create_request+0x100>
  LWIP_ASSERT("dhcp_create_request: dhcp->p_out == NULL", dhcp->p_out == NULL);
  802ae2:	83 7b 1c 00          	cmpl   $0x0,0x1c(%ebx)
  802ae6:	0f 85 ef 00 00 00    	jne    802bdb <dhcp_create_request+0x117>
  LWIP_ASSERT("dhcp_create_request: dhcp->msg_out == NULL", dhcp->msg_out == NULL);
  802aec:	83 7b 20 00          	cmpl   $0x0,0x20(%ebx)
  802af0:	0f 85 fc 00 00 00    	jne    802bf2 <dhcp_create_request+0x12e>
  dhcp->p_out = pbuf_alloc(PBUF_TRANSPORT, sizeof(struct dhcp_msg), PBUF_RAM);
  802af6:	83 ec 04             	sub    $0x4,%esp
  802af9:	6a 00                	push   $0x0
  802afb:	68 34 01 00 00       	push   $0x134
  802b00:	6a 00                	push   $0x0
  802b02:	e8 a2 1d 00 00       	call   8048a9 <pbuf_alloc>
  802b07:	89 43 1c             	mov    %eax,0x1c(%ebx)
  if (dhcp->p_out == NULL) {
  802b0a:	83 c4 10             	add    $0x10,%esp
  802b0d:	85 c0                	test   %eax,%eax
  802b0f:	0f 84 9b 01 00 00    	je     802cb0 <dhcp_create_request+0x1ec>
  LWIP_ASSERT("dhcp_create_request: check that first pbuf can hold struct dhcp_msg",
  802b15:	66 81 78 0a 33 01    	cmpw   $0x133,0xa(%eax)
  802b1b:	0f 86 e8 00 00 00    	jbe    802c09 <dhcp_create_request+0x145>
  dhcp->xid = xid++;
  802b21:	8b 15 04 40 81 00    	mov    0x814004,%edx
  802b27:	8d 4a 01             	lea    0x1(%edx),%ecx
  802b2a:	89 0d 04 40 81 00    	mov    %ecx,0x814004
  802b30:	89 53 04             	mov    %edx,0x4(%ebx)
  dhcp->msg_out = (struct dhcp_msg *)dhcp->p_out->payload;
  802b33:	8b 40 04             	mov    0x4(%eax),%eax
  802b36:	89 43 20             	mov    %eax,0x20(%ebx)
  dhcp->msg_out->op = DHCP_BOOTREQUEST;
  802b39:	c6 00 01             	movb   $0x1,(%eax)
  dhcp->msg_out->htype = DHCP_HTYPE_ETH;
  802b3c:	8b 43 20             	mov    0x20(%ebx),%eax
  802b3f:	c6 40 01 01          	movb   $0x1,0x1(%eax)
  dhcp->msg_out->hlen = DHCP_HLEN_ETH;
  802b43:	8b 43 20             	mov    0x20(%ebx),%eax
  802b46:	c6 40 02 06          	movb   $0x6,0x2(%eax)
  dhcp->msg_out->hops = 0;
  802b4a:	8b 43 20             	mov    0x20(%ebx),%eax
  802b4d:	c6 40 03 00          	movb   $0x0,0x3(%eax)
  dhcp->msg_out->xid = htonl(dhcp->xid);
  802b51:	8b 7b 20             	mov    0x20(%ebx),%edi
  802b54:	83 ec 0c             	sub    $0xc,%esp
  802b57:	ff 73 04             	pushl  0x4(%ebx)
  802b5a:	e8 80 4b 00 00       	call   8076df <htonl>
  802b5f:	89 47 04             	mov    %eax,0x4(%edi)
  dhcp->msg_out->secs = 0;
  802b62:	8b 43 20             	mov    0x20(%ebx),%eax
  802b65:	66 c7 40 08 00 00    	movw   $0x0,0x8(%eax)
  dhcp->msg_out->flags = 0;
  802b6b:	8b 43 20             	mov    0x20(%ebx),%eax
  802b6e:	66 c7 40 0a 00 00    	movw   $0x0,0xa(%eax)
  dhcp->msg_out->ciaddr.addr = netif->ip_addr.addr;
  802b74:	8b 43 20             	mov    0x20(%ebx),%eax
  802b77:	8b 56 04             	mov    0x4(%esi),%edx
  802b7a:	89 50 0c             	mov    %edx,0xc(%eax)
  dhcp->msg_out->yiaddr.addr = 0;
  802b7d:	8b 43 20             	mov    0x20(%ebx),%eax
  802b80:	c7 40 10 00 00 00 00 	movl   $0x0,0x10(%eax)
  dhcp->msg_out->siaddr.addr = 0;
  802b87:	8b 43 20             	mov    0x20(%ebx),%eax
  802b8a:	c7 40 14 00 00 00 00 	movl   $0x0,0x14(%eax)
  dhcp->msg_out->giaddr.addr = 0;
  802b91:	8b 43 20             	mov    0x20(%ebx),%eax
  802b94:	c7 40 18 00 00 00 00 	movl   $0x0,0x18(%eax)
  802b9b:	83 c4 10             	add    $0x10,%esp
  802b9e:	b8 00 00 00 00       	mov    $0x0,%eax
    dhcp->msg_out->chaddr[i] = (i < netif->hwaddr_len) ? netif->hwaddr[i] : 0/* pad byte*/;
  802ba3:	bf 00 00 00 00       	mov    $0x0,%edi
  802ba8:	e9 82 00 00 00       	jmp    802c2f <dhcp_create_request+0x16b>
  LWIP_ERROR("dhcp_create_request: netif != NULL", (netif != NULL), return ERR_ARG;);
  802bad:	83 ec 04             	sub    $0x4,%esp
  802bb0:	68 6c 14 81 00       	push   $0x81146c
  802bb5:	68 2d 05 00 00       	push   $0x52d
  802bba:	68 22 16 81 00       	push   $0x811622
  802bbf:	e8 ac b9 00 00       	call   80e570 <_panic>
  LWIP_ERROR("dhcp_create_request: dhcp != NULL", (dhcp != NULL), return ERR_VAL;);
  802bc4:	83 ec 04             	sub    $0x4,%esp
  802bc7:	68 90 14 81 00       	push   $0x811490
  802bcc:	68 2f 05 00 00       	push   $0x52f
  802bd1:	68 22 16 81 00       	push   $0x811622
  802bd6:	e8 95 b9 00 00       	call   80e570 <_panic>
  LWIP_ASSERT("dhcp_create_request: dhcp->p_out == NULL", dhcp->p_out == NULL);
  802bdb:	83 ec 04             	sub    $0x4,%esp
  802bde:	68 b4 14 81 00       	push   $0x8114b4
  802be3:	68 30 05 00 00       	push   $0x530
  802be8:	68 22 16 81 00       	push   $0x811622
  802bed:	e8 7e b9 00 00       	call   80e570 <_panic>
  LWIP_ASSERT("dhcp_create_request: dhcp->msg_out == NULL", dhcp->msg_out == NULL);
  802bf2:	83 ec 04             	sub    $0x4,%esp
  802bf5:	68 e0 14 81 00       	push   $0x8114e0
  802bfa:	68 31 05 00 00       	push   $0x531
  802bff:	68 22 16 81 00       	push   $0x811622
  802c04:	e8 67 b9 00 00       	call   80e570 <_panic>
  LWIP_ASSERT("dhcp_create_request: check that first pbuf can hold struct dhcp_msg",
  802c09:	83 ec 04             	sub    $0x4,%esp
  802c0c:	68 0c 15 81 00       	push   $0x81150c
  802c11:	68 38 05 00 00       	push   $0x538
  802c16:	68 22 16 81 00       	push   $0x811622
  802c1b:	e8 50 b9 00 00       	call   80e570 <_panic>
    dhcp->msg_out->chaddr[i] = (i < netif->hwaddr_len) ? netif->hwaddr[i] : 0/* pad byte*/;
  802c20:	8b 4b 20             	mov    0x20(%ebx),%ecx
  802c23:	88 54 01 1c          	mov    %dl,0x1c(%ecx,%eax,1)
  802c27:	83 c0 01             	add    $0x1,%eax
  for (i = 0; i < DHCP_CHADDR_LEN; i++) {
  802c2a:	83 f8 10             	cmp    $0x10,%eax
  802c2d:	74 12                	je     802c41 <dhcp_create_request+0x17d>
    dhcp->msg_out->chaddr[i] = (i < netif->hwaddr_len) ? netif->hwaddr[i] : 0/* pad byte*/;
  802c2f:	0f b6 4e 24          	movzbl 0x24(%esi),%ecx
  802c33:	89 fa                	mov    %edi,%edx
  802c35:	66 39 c1             	cmp    %ax,%cx
  802c38:	76 e6                	jbe    802c20 <dhcp_create_request+0x15c>
  802c3a:	0f b6 54 06 25       	movzbl 0x25(%esi,%eax,1),%edx
  802c3f:	eb df                	jmp    802c20 <dhcp_create_request+0x15c>
  802c41:	b8 00 00 00 00       	mov    $0x0,%eax
    dhcp->msg_out->sname[i] = 0;
  802c46:	8b 53 20             	mov    0x20(%ebx),%edx
  802c49:	c6 44 02 2c 00       	movb   $0x0,0x2c(%edx,%eax,1)
  802c4e:	83 c0 01             	add    $0x1,%eax
  for (i = 0; i < DHCP_SNAME_LEN; i++) {
  802c51:	83 f8 40             	cmp    $0x40,%eax
  802c54:	75 f0                	jne    802c46 <dhcp_create_request+0x182>
  802c56:	b8 00 00 00 00       	mov    $0x0,%eax
    dhcp->msg_out->file[i] = 0;
  802c5b:	8b 53 20             	mov    0x20(%ebx),%edx
  802c5e:	c6 44 02 6c 00       	movb   $0x0,0x6c(%edx,%eax,1)
  802c63:	83 c0 01             	add    $0x1,%eax
  for (i = 0; i < DHCP_FILE_LEN; i++) {
  802c66:	3d 80 00 00 00       	cmp    $0x80,%eax
  802c6b:	75 ee                	jne    802c5b <dhcp_create_request+0x197>
  dhcp->msg_out->cookie = htonl(0x63825363UL);
  802c6d:	8b 73 20             	mov    0x20(%ebx),%esi
  802c70:	83 ec 0c             	sub    $0xc,%esp
  802c73:	68 63 53 82 63       	push   $0x63825363
  802c78:	e8 62 4a 00 00       	call   8076df <htonl>
  802c7d:	89 86 ec 00 00 00    	mov    %eax,0xec(%esi)
  dhcp->options_out_len = 0;
  802c83:	66 c7 43 24 00 00    	movw   $0x0,0x24(%ebx)
  802c89:	83 c4 10             	add    $0x10,%esp
  802c8c:	b8 00 00 00 00       	mov    $0x0,%eax
    dhcp->msg_out->options[i] = (u8_t)i; /* for debugging only, no matter if truncated */
  802c91:	8b 53 20             	mov    0x20(%ebx),%edx
  802c94:	88 84 02 f0 00 00 00 	mov    %al,0xf0(%edx,%eax,1)
  802c9b:	83 c0 01             	add    $0x1,%eax
  for (i = 0; i < DHCP_OPTIONS_LEN; i++) {
  802c9e:	83 f8 44             	cmp    $0x44,%eax
  802ca1:	75 ee                	jne    802c91 <dhcp_create_request+0x1cd>
  return ERR_OK;
  802ca3:	b8 00 00 00 00       	mov    $0x0,%eax
}
  802ca8:	8d 65 f4             	lea    -0xc(%ebp),%esp
  802cab:	5b                   	pop    %ebx
  802cac:	5e                   	pop    %esi
  802cad:	5f                   	pop    %edi
  802cae:	5d                   	pop    %ebp
  802caf:	c3                   	ret    
    return ERR_MEM;
  802cb0:	b8 ff ff ff ff       	mov    $0xffffffff,%eax
  802cb5:	eb f1                	jmp    802ca8 <dhcp_create_request+0x1e4>

00802cb7 <dhcp_delete_request>:
{
  802cb7:	55                   	push   %ebp
  802cb8:	89 e5                	mov    %esp,%ebp
  802cba:	53                   	push   %ebx
  802cbb:	83 ec 04             	sub    $0x4,%esp
  LWIP_ERROR("dhcp_delete_request: netif != NULL", (netif != NULL), return;);
  802cbe:	85 c0                	test   %eax,%eax
  802cc0:	74 33                	je     802cf5 <dhcp_delete_request+0x3e>
  dhcp = netif->dhcp;
  802cc2:	8b 58 20             	mov    0x20(%eax),%ebx
  LWIP_ERROR("dhcp_delete_request: dhcp != NULL", (dhcp != NULL), return;);
  802cc5:	85 db                	test   %ebx,%ebx
  802cc7:	74 43                	je     802d0c <dhcp_delete_request+0x55>
  LWIP_ASSERT("dhcp_delete_request: dhcp->p_out != NULL", dhcp->p_out != NULL);
  802cc9:	8b 43 1c             	mov    0x1c(%ebx),%eax
  802ccc:	85 c0                	test   %eax,%eax
  802cce:	74 53                	je     802d23 <dhcp_delete_request+0x6c>
  LWIP_ASSERT("dhcp_delete_request: dhcp->msg_out != NULL", dhcp->msg_out != NULL);
  802cd0:	83 7b 20 00          	cmpl   $0x0,0x20(%ebx)
  802cd4:	74 64                	je     802d3a <dhcp_delete_request+0x83>
    pbuf_free(dhcp->p_out);
  802cd6:	83 ec 0c             	sub    $0xc,%esp
  802cd9:	50                   	push   %eax
  802cda:	e8 04 1b 00 00       	call   8047e3 <pbuf_free>
  dhcp->p_out = NULL;
  802cdf:	c7 43 1c 00 00 00 00 	movl   $0x0,0x1c(%ebx)
  dhcp->msg_out = NULL;
  802ce6:	c7 43 20 00 00 00 00 	movl   $0x0,0x20(%ebx)
  802ced:	83 c4 10             	add    $0x10,%esp
}
  802cf0:	8b 5d fc             	mov    -0x4(%ebp),%ebx
  802cf3:	c9                   	leave  
  802cf4:	c3                   	ret    
  LWIP_ERROR("dhcp_delete_request: netif != NULL", (netif != NULL), return;);
  802cf5:	83 ec 04             	sub    $0x4,%esp
  802cf8:	68 50 15 81 00       	push   $0x811550
  802cfd:	68 69 05 00 00       	push   $0x569
  802d02:	68 22 16 81 00       	push   $0x811622
  802d07:	e8 64 b8 00 00       	call   80e570 <_panic>
  LWIP_ERROR("dhcp_delete_request: dhcp != NULL", (dhcp != NULL), return;);
  802d0c:	83 ec 04             	sub    $0x4,%esp
  802d0f:	68 74 15 81 00       	push   $0x811574
  802d14:	68 6b 05 00 00       	push   $0x56b
  802d19:	68 22 16 81 00       	push   $0x811622
  802d1e:	e8 4d b8 00 00       	call   80e570 <_panic>
  LWIP_ASSERT("dhcp_delete_request: dhcp->p_out != NULL", dhcp->p_out != NULL);
  802d23:	83 ec 04             	sub    $0x4,%esp
  802d26:	68 98 15 81 00       	push   $0x811598
  802d2b:	68 6c 05 00 00       	push   $0x56c
  802d30:	68 22 16 81 00       	push   $0x811622
  802d35:	e8 36 b8 00 00       	call   80e570 <_panic>
  LWIP_ASSERT("dhcp_delete_request: dhcp->msg_out != NULL", dhcp->msg_out != NULL);
  802d3a:	83 ec 04             	sub    $0x4,%esp
  802d3d:	68 c4 15 81 00       	push   $0x8115c4
  802d42:	68 6d 05 00 00       	push   $0x56d
  802d47:	68 22 16 81 00       	push   $0x811622
  802d4c:	e8 1f b8 00 00       	call   80e570 <_panic>

00802d51 <dhcp_rebind>:
{
  802d51:	55                   	push   %ebp
  802d52:	89 e5                	mov    %esp,%ebp
  802d54:	57                   	push   %edi
  802d55:	56                   	push   %esi
  802d56:	53                   	push   %ebx
  802d57:	83 ec 0c             	sub    $0xc,%esp
  802d5a:	89 c7                	mov    %eax,%edi
  struct dhcp *dhcp = netif->dhcp;
  802d5c:	8b 58 20             	mov    0x20(%eax),%ebx
  dhcp_set_state(dhcp, DHCP_REBINDING);
  802d5f:	ba 04 00 00 00       	mov    $0x4,%edx
  802d64:	89 d8                	mov    %ebx,%eax
  802d66:	e8 ce f9 ff ff       	call   802739 <dhcp_set_state>
  result = dhcp_create_request(netif);
  802d6b:	89 f8                	mov    %edi,%eax
  802d6d:	e8 52 fd ff ff       	call   802ac4 <dhcp_create_request>
  802d72:	89 c6                	mov    %eax,%esi
  if (result == ERR_OK) {
  802d74:	84 c0                	test   %al,%al
  802d76:	74 3e                	je     802db6 <dhcp_rebind+0x65>
  dhcp->tries++;
  802d78:	0f b6 43 01          	movzbl 0x1(%ebx),%eax
  802d7c:	83 c0 01             	add    $0x1,%eax
  802d7f:	88 43 01             	mov    %al,0x1(%ebx)
  msecs = dhcp->tries < 10 ? dhcp->tries * 1000 : 10 * 1000;
  802d82:	ba 10 27 00 00       	mov    $0x2710,%edx
  802d87:	3c 09                	cmp    $0x9,%al
  802d89:	77 08                	ja     802d93 <dhcp_rebind+0x42>
  802d8b:	0f b6 d0             	movzbl %al,%edx
  802d8e:	66 69 d2 e8 03       	imul   $0x3e8,%dx,%dx
  dhcp->request_timeout = (msecs + DHCP_FINE_TIMER_MSECS - 1) / DHCP_FINE_TIMER_MSECS;
  802d93:	0f b7 d2             	movzwl %dx,%edx
  802d96:	81 c2 f3 01 00 00    	add    $0x1f3,%edx
  802d9c:	b9 d3 4d 62 10       	mov    $0x10624dd3,%ecx
  802da1:	89 d0                	mov    %edx,%eax
  802da3:	f7 e9                	imul   %ecx
  802da5:	c1 fa 05             	sar    $0x5,%edx
  802da8:	66 89 53 26          	mov    %dx,0x26(%ebx)
}
  802dac:	89 f0                	mov    %esi,%eax
  802dae:	8d 65 f4             	lea    -0xc(%ebp),%esp
  802db1:	5b                   	pop    %ebx
  802db2:	5e                   	pop    %esi
  802db3:	5f                   	pop    %edi
  802db4:	5d                   	pop    %ebp
  802db5:	c3                   	ret    
    dhcp_option(dhcp, DHCP_OPTION_MESSAGE_TYPE, DHCP_OPTION_MESSAGE_TYPE_LEN);
  802db6:	b9 01 00 00 00       	mov    $0x1,%ecx
  802dbb:	ba 35 00 00 00       	mov    $0x35,%edx
  802dc0:	89 d8                	mov    %ebx,%eax
  802dc2:	e8 eb fa ff ff       	call   8028b2 <dhcp_option>
    dhcp_option_byte(dhcp, DHCP_REQUEST);
  802dc7:	ba 03 00 00 00       	mov    $0x3,%edx
  802dcc:	89 d8                	mov    %ebx,%eax
  802dce:	e8 9e fa ff ff       	call   802871 <dhcp_option_byte>
    dhcp_option(dhcp, DHCP_OPTION_MAX_MSG_SIZE, DHCP_OPTION_MAX_MSG_SIZE_LEN);
  802dd3:	b9 02 00 00 00       	mov    $0x2,%ecx
  802dd8:	ba 39 00 00 00       	mov    $0x39,%edx
  802ddd:	89 d8                	mov    %ebx,%eax
  802ddf:	e8 ce fa ff ff       	call   8028b2 <dhcp_option>
    dhcp_option_short(dhcp, 576);
  802de4:	ba 40 02 00 00       	mov    $0x240,%edx
  802de9:	89 d8                	mov    %ebx,%eax
  802deb:	e8 29 fb ff ff       	call   802919 <dhcp_option_short>
    dhcp_option_trailer(dhcp);
  802df0:	89 d8                	mov    %ebx,%eax
  802df2:	e8 80 fb ff ff       	call   802977 <dhcp_option_trailer>
    pbuf_realloc(dhcp->p_out, sizeof(struct dhcp_msg) - DHCP_OPTIONS_LEN + dhcp->options_out_len);
  802df7:	83 ec 08             	sub    $0x8,%esp
  802dfa:	0f b7 43 24          	movzwl 0x24(%ebx),%eax
  802dfe:	66 05 f0 00          	add    $0xf0,%ax
  802e02:	0f b7 c0             	movzwl %ax,%eax
  802e05:	50                   	push   %eax
  802e06:	ff 73 1c             	pushl  0x1c(%ebx)
  802e09:	e8 0d 1d 00 00       	call   804b1b <pbuf_realloc>
    udp_connect(dhcp->pcb, IP_ADDR_ANY, DHCP_SERVER_PORT);
  802e0e:	83 c4 0c             	add    $0xc,%esp
  802e11:	6a 43                	push   $0x43
  802e13:	68 c8 1e 81 00       	push   $0x811ec8
  802e18:	ff 73 08             	pushl  0x8(%ebx)
  802e1b:	e8 bb 60 00 00       	call   808edb <udp_connect>
    udp_sendto_if(dhcp->pcb, dhcp->p_out, IP_ADDR_BROADCAST, DHCP_SERVER_PORT, netif);
  802e20:	89 3c 24             	mov    %edi,(%esp)
  802e23:	6a 43                	push   $0x43
  802e25:	68 c4 1e 81 00       	push   $0x811ec4
  802e2a:	ff 73 1c             	pushl  0x1c(%ebx)
  802e2d:	ff 73 08             	pushl  0x8(%ebx)
  802e30:	e8 b1 5e 00 00       	call   808ce6 <udp_sendto_if>
    dhcp_delete_request(netif);
  802e35:	83 c4 20             	add    $0x20,%esp
  802e38:	89 f8                	mov    %edi,%eax
  802e3a:	e8 78 fe ff ff       	call   802cb7 <dhcp_delete_request>
  802e3f:	e9 34 ff ff ff       	jmp    802d78 <dhcp_rebind+0x27>

00802e44 <dhcp_discover>:
{
  802e44:	55                   	push   %ebp
  802e45:	89 e5                	mov    %esp,%ebp
  802e47:	57                   	push   %edi
  802e48:	56                   	push   %esi
  802e49:	53                   	push   %ebx
  802e4a:	83 ec 0c             	sub    $0xc,%esp
  802e4d:	89 c7                	mov    %eax,%edi
  struct dhcp *dhcp = netif->dhcp;
  802e4f:	8b 58 20             	mov    0x20(%eax),%ebx
  ip_addr_set(&dhcp->offered_ip_addr, IP_ADDR_ANY);
  802e52:	a1 c8 1e 81 00       	mov    0x811ec8,%eax
  802e57:	89 43 30             	mov    %eax,0x30(%ebx)
  result = dhcp_create_request(netif);
  802e5a:	89 f8                	mov    %edi,%eax
  802e5c:	e8 63 fc ff ff       	call   802ac4 <dhcp_create_request>
  802e61:	89 c6                	mov    %eax,%esi
  if (result == ERR_OK) {
  802e63:	84 c0                	test   %al,%al
  802e65:	74 41                	je     802ea8 <dhcp_discover+0x64>
  dhcp->tries++;
  802e67:	0f b6 43 01          	movzbl 0x1(%ebx),%eax
  802e6b:	83 c0 01             	add    $0x1,%eax
  802e6e:	88 43 01             	mov    %al,0x1(%ebx)
  msecs = dhcp->tries < 4 ? (dhcp->tries + 1) * 1000 : 10 * 1000;
  802e71:	ba 10 27 00 00       	mov    $0x2710,%edx
  802e76:	3c 03                	cmp    $0x3,%al
  802e78:	77 0b                	ja     802e85 <dhcp_discover+0x41>
  802e7a:	0f b6 d0             	movzbl %al,%edx
  802e7d:	83 c2 01             	add    $0x1,%edx
  802e80:	66 69 d2 e8 03       	imul   $0x3e8,%dx,%dx
  dhcp->request_timeout = (msecs + DHCP_FINE_TIMER_MSECS - 1) / DHCP_FINE_TIMER_MSECS;
  802e85:	0f b7 d2             	movzwl %dx,%edx
  802e88:	81 c2 f3 01 00 00    	add    $0x1f3,%edx
  802e8e:	b9 d3 4d 62 10       	mov    $0x10624dd3,%ecx
  802e93:	89 d0                	mov    %edx,%eax
  802e95:	f7 e9                	imul   %ecx
  802e97:	c1 fa 05             	sar    $0x5,%edx
  802e9a:	66 89 53 26          	mov    %dx,0x26(%ebx)
}
  802e9e:	89 f0                	mov    %esi,%eax
  802ea0:	8d 65 f4             	lea    -0xc(%ebp),%esp
  802ea3:	5b                   	pop    %ebx
  802ea4:	5e                   	pop    %esi
  802ea5:	5f                   	pop    %edi
  802ea6:	5d                   	pop    %ebp
  802ea7:	c3                   	ret    
    dhcp_option(dhcp, DHCP_OPTION_MESSAGE_TYPE, DHCP_OPTION_MESSAGE_TYPE_LEN);
  802ea8:	b9 01 00 00 00       	mov    $0x1,%ecx
  802ead:	ba 35 00 00 00       	mov    $0x35,%edx
  802eb2:	89 d8                	mov    %ebx,%eax
  802eb4:	e8 f9 f9 ff ff       	call   8028b2 <dhcp_option>
    dhcp_option_byte(dhcp, DHCP_DISCOVER);
  802eb9:	ba 01 00 00 00       	mov    $0x1,%edx
  802ebe:	89 d8                	mov    %ebx,%eax
  802ec0:	e8 ac f9 ff ff       	call   802871 <dhcp_option_byte>
    dhcp_option(dhcp, DHCP_OPTION_MAX_MSG_SIZE, DHCP_OPTION_MAX_MSG_SIZE_LEN);
  802ec5:	b9 02 00 00 00       	mov    $0x2,%ecx
  802eca:	ba 39 00 00 00       	mov    $0x39,%edx
  802ecf:	89 d8                	mov    %ebx,%eax
  802ed1:	e8 dc f9 ff ff       	call   8028b2 <dhcp_option>
    dhcp_option_short(dhcp, 576);
  802ed6:	ba 40 02 00 00       	mov    $0x240,%edx
  802edb:	89 d8                	mov    %ebx,%eax
  802edd:	e8 37 fa ff ff       	call   802919 <dhcp_option_short>
    dhcp_option(dhcp, DHCP_OPTION_PARAMETER_REQUEST_LIST, 4/*num options*/);
  802ee2:	b9 04 00 00 00       	mov    $0x4,%ecx
  802ee7:	ba 37 00 00 00       	mov    $0x37,%edx
  802eec:	89 d8                	mov    %ebx,%eax
  802eee:	e8 bf f9 ff ff       	call   8028b2 <dhcp_option>
    dhcp_option_byte(dhcp, DHCP_OPTION_SUBNET_MASK);
  802ef3:	ba 01 00 00 00       	mov    $0x1,%edx
  802ef8:	89 d8                	mov    %ebx,%eax
  802efa:	e8 72 f9 ff ff       	call   802871 <dhcp_option_byte>
    dhcp_option_byte(dhcp, DHCP_OPTION_ROUTER);
  802eff:	ba 03 00 00 00       	mov    $0x3,%edx
  802f04:	89 d8                	mov    %ebx,%eax
  802f06:	e8 66 f9 ff ff       	call   802871 <dhcp_option_byte>
    dhcp_option_byte(dhcp, DHCP_OPTION_BROADCAST);
  802f0b:	ba 1c 00 00 00       	mov    $0x1c,%edx
  802f10:	89 d8                	mov    %ebx,%eax
  802f12:	e8 5a f9 ff ff       	call   802871 <dhcp_option_byte>
    dhcp_option_byte(dhcp, DHCP_OPTION_DNS_SERVER);
  802f17:	ba 06 00 00 00       	mov    $0x6,%edx
  802f1c:	89 d8                	mov    %ebx,%eax
  802f1e:	e8 4e f9 ff ff       	call   802871 <dhcp_option_byte>
    dhcp_option_trailer(dhcp);
  802f23:	89 d8                	mov    %ebx,%eax
  802f25:	e8 4d fa ff ff       	call   802977 <dhcp_option_trailer>
    pbuf_realloc(dhcp->p_out, sizeof(struct dhcp_msg) - DHCP_OPTIONS_LEN + dhcp->options_out_len);
  802f2a:	83 ec 08             	sub    $0x8,%esp
  802f2d:	0f b7 43 24          	movzwl 0x24(%ebx),%eax
  802f31:	66 05 f0 00          	add    $0xf0,%ax
  802f35:	0f b7 c0             	movzwl %ax,%eax
  802f38:	50                   	push   %eax
  802f39:	ff 73 1c             	pushl  0x1c(%ebx)
  802f3c:	e8 da 1b 00 00       	call   804b1b <pbuf_realloc>
    udp_connect(dhcp->pcb, IP_ADDR_ANY, DHCP_SERVER_PORT);
  802f41:	83 c4 0c             	add    $0xc,%esp
  802f44:	6a 43                	push   $0x43
  802f46:	68 c8 1e 81 00       	push   $0x811ec8
  802f4b:	ff 73 08             	pushl  0x8(%ebx)
  802f4e:	e8 88 5f 00 00       	call   808edb <udp_connect>
    udp_sendto_if(dhcp->pcb, dhcp->p_out, IP_ADDR_BROADCAST, DHCP_SERVER_PORT, netif);
  802f53:	89 3c 24             	mov    %edi,(%esp)
  802f56:	6a 43                	push   $0x43
  802f58:	68 c4 1e 81 00       	push   $0x811ec4
  802f5d:	ff 73 1c             	pushl  0x1c(%ebx)
  802f60:	ff 73 08             	pushl  0x8(%ebx)
  802f63:	e8 7e 5d 00 00       	call   808ce6 <udp_sendto_if>
    dhcp_delete_request(netif);
  802f68:	83 c4 20             	add    $0x20,%esp
  802f6b:	89 f8                	mov    %edi,%eax
  802f6d:	e8 45 fd ff ff       	call   802cb7 <dhcp_delete_request>
    dhcp_set_state(dhcp, DHCP_SELECTING);
  802f72:	ba 06 00 00 00       	mov    $0x6,%edx
  802f77:	89 d8                	mov    %ebx,%eax
  802f79:	e8 bb f7 ff ff       	call   802739 <dhcp_set_state>
  802f7e:	e9 e4 fe ff ff       	jmp    802e67 <dhcp_discover+0x23>

00802f83 <dhcp_select>:
{
  802f83:	55                   	push   %ebp
  802f84:	89 e5                	mov    %esp,%ebp
  802f86:	57                   	push   %edi
  802f87:	56                   	push   %esi
  802f88:	53                   	push   %ebx
  802f89:	83 ec 0c             	sub    $0xc,%esp
  802f8c:	89 c7                	mov    %eax,%edi
  struct dhcp *dhcp = netif->dhcp;
  802f8e:	8b 58 20             	mov    0x20(%eax),%ebx
  result = dhcp_create_request(netif);
  802f91:	e8 2e fb ff ff       	call   802ac4 <dhcp_create_request>
  802f96:	89 c6                	mov    %eax,%esi
  if (result == ERR_OK) {
  802f98:	84 c0                	test   %al,%al
  802f9a:	74 3e                	je     802fda <dhcp_select+0x57>
  dhcp->tries++;
  802f9c:	0f b6 43 01          	movzbl 0x1(%ebx),%eax
  802fa0:	83 c0 01             	add    $0x1,%eax
  802fa3:	88 43 01             	mov    %al,0x1(%ebx)
  msecs = dhcp->tries < 4 ? dhcp->tries * 1000 : 4 * 1000;
  802fa6:	ba a0 0f 00 00       	mov    $0xfa0,%edx
  802fab:	3c 03                	cmp    $0x3,%al
  802fad:	77 08                	ja     802fb7 <dhcp_select+0x34>
  802faf:	0f b6 d0             	movzbl %al,%edx
  802fb2:	66 69 d2 e8 03       	imul   $0x3e8,%dx,%dx
  dhcp->request_timeout = (msecs + DHCP_FINE_TIMER_MSECS - 1) / DHCP_FINE_TIMER_MSECS;
  802fb7:	0f b7 d2             	movzwl %dx,%edx
  802fba:	81 c2 f3 01 00 00    	add    $0x1f3,%edx
  802fc0:	b9 d3 4d 62 10       	mov    $0x10624dd3,%ecx
  802fc5:	89 d0                	mov    %edx,%eax
  802fc7:	f7 e9                	imul   %ecx
  802fc9:	c1 fa 05             	sar    $0x5,%edx
  802fcc:	66 89 53 26          	mov    %dx,0x26(%ebx)
}
  802fd0:	89 f0                	mov    %esi,%eax
  802fd2:	8d 65 f4             	lea    -0xc(%ebp),%esp
  802fd5:	5b                   	pop    %ebx
  802fd6:	5e                   	pop    %esi
  802fd7:	5f                   	pop    %edi
  802fd8:	5d                   	pop    %ebp
  802fd9:	c3                   	ret    
    dhcp_option(dhcp, DHCP_OPTION_MESSAGE_TYPE, DHCP_OPTION_MESSAGE_TYPE_LEN);
  802fda:	b9 01 00 00 00       	mov    $0x1,%ecx
  802fdf:	ba 35 00 00 00       	mov    $0x35,%edx
  802fe4:	89 d8                	mov    %ebx,%eax
  802fe6:	e8 c7 f8 ff ff       	call   8028b2 <dhcp_option>
    dhcp_option_byte(dhcp, DHCP_REQUEST);
  802feb:	ba 03 00 00 00       	mov    $0x3,%edx
  802ff0:	89 d8                	mov    %ebx,%eax
  802ff2:	e8 7a f8 ff ff       	call   802871 <dhcp_option_byte>
    dhcp_option(dhcp, DHCP_OPTION_MAX_MSG_SIZE, DHCP_OPTION_MAX_MSG_SIZE_LEN);
  802ff7:	b9 02 00 00 00       	mov    $0x2,%ecx
  802ffc:	ba 39 00 00 00       	mov    $0x39,%edx
  803001:	89 d8                	mov    %ebx,%eax
  803003:	e8 aa f8 ff ff       	call   8028b2 <dhcp_option>
    dhcp_option_short(dhcp, 576);
  803008:	ba 40 02 00 00       	mov    $0x240,%edx
  80300d:	89 d8                	mov    %ebx,%eax
